
Master.elf:     file format elf32-avr

Sections:
Idx Name          Size      VMA       LMA       File off  Algn
  0 .data         00000000  00800200  00800200  00001b52  2**0
                  CONTENTS, ALLOC, LOAD, DATA
  1 .text         00001ade  00000000  00000000  00000074  2**1
                  CONTENTS, ALLOC, LOAD, READONLY, CODE
  2 .bss          00000095  00800200  00800200  00001b52  2**0
                  ALLOC
  3 .comment      00000030  00000000  00000000  00001b52  2**0
                  CONTENTS, READONLY
  4 .note.gnu.avr.deviceinfo 00000040  00000000  00000000  00001b84  2**2
                  CONTENTS, READONLY
  5 .debug_aranges 000002b8  00000000  00000000  00001bc4  2**0
                  CONTENTS, READONLY, DEBUGGING
  6 .debug_info   00003b25  00000000  00000000  00001e7c  2**0
                  CONTENTS, READONLY, DEBUGGING
  7 .debug_abbrev 00001704  00000000  00000000  000059a1  2**0
                  CONTENTS, READONLY, DEBUGGING
  8 .debug_line   00001a93  00000000  00000000  000070a5  2**0
                  CONTENTS, READONLY, DEBUGGING
  9 .debug_frame  000007b8  00000000  00000000  00008b38  2**2
                  CONTENTS, READONLY, DEBUGGING
 10 .debug_str    000015cb  00000000  00000000  000092f0  2**0
                  CONTENTS, READONLY, DEBUGGING
 11 .debug_loc    00001232  00000000  00000000  0000a8bb  2**0
                  CONTENTS, READONLY, DEBUGGING
 12 .debug_ranges 00000248  00000000  00000000  0000baed  2**0
                  CONTENTS, READONLY, DEBUGGING

Disassembly of section .text:

00000000 <__vectors>:
       0:	72 c0       	rjmp	.+228    	; 0xe6 <__ctors_end>
       2:	00 00       	nop
       4:	84 c3       	rjmp	.+1800   	; 0x70e <__vector_1>
       6:	00 00       	nop
       8:	35 c3       	rjmp	.+1642   	; 0x674 <__vector_2>
       a:	00 00       	nop
       c:	0c 94 4a 0a 	jmp	0x1494	; 0x1494 <__vector_3>
      10:	8d c0       	rjmp	.+282    	; 0x12c <__bad_interrupt>
      12:	00 00       	nop
      14:	8b c0       	rjmp	.+278    	; 0x12c <__bad_interrupt>
      16:	00 00       	nop
      18:	0c 94 2e 0a 	jmp	0x145c	; 0x145c <__vector_6>
      1c:	87 c0       	rjmp	.+270    	; 0x12c <__bad_interrupt>
      1e:	00 00       	nop
      20:	85 c0       	rjmp	.+266    	; 0x12c <__bad_interrupt>
      22:	00 00       	nop
      24:	83 c0       	rjmp	.+262    	; 0x12c <__bad_interrupt>
      26:	00 00       	nop
      28:	81 c0       	rjmp	.+258    	; 0x12c <__bad_interrupt>
      2a:	00 00       	nop
      2c:	7f c0       	rjmp	.+254    	; 0x12c <__bad_interrupt>
      2e:	00 00       	nop
      30:	7d c0       	rjmp	.+250    	; 0x12c <__bad_interrupt>
      32:	00 00       	nop
      34:	7b c0       	rjmp	.+246    	; 0x12c <__bad_interrupt>
      36:	00 00       	nop
      38:	79 c0       	rjmp	.+242    	; 0x12c <__bad_interrupt>
      3a:	00 00       	nop
      3c:	af c2       	rjmp	.+1374   	; 0x59c <__vector_15>
      3e:	00 00       	nop
      40:	75 c0       	rjmp	.+234    	; 0x12c <__bad_interrupt>
      42:	00 00       	nop
      44:	73 c0       	rjmp	.+230    	; 0x12c <__bad_interrupt>
      46:	00 00       	nop
      48:	71 c0       	rjmp	.+226    	; 0x12c <__bad_interrupt>
      4a:	00 00       	nop
      4c:	6f c0       	rjmp	.+222    	; 0x12c <__bad_interrupt>
      4e:	00 00       	nop
      50:	6d c0       	rjmp	.+218    	; 0x12c <__bad_interrupt>
      52:	00 00       	nop
      54:	0c 94 0f 0a 	jmp	0x141e	; 0x141e <__vector_21>
      58:	69 c0       	rjmp	.+210    	; 0x12c <__bad_interrupt>
      5a:	00 00       	nop
      5c:	67 c0       	rjmp	.+206    	; 0x12c <__bad_interrupt>
      5e:	00 00       	nop
      60:	65 c0       	rjmp	.+202    	; 0x12c <__bad_interrupt>
      62:	00 00       	nop
      64:	0c 94 b4 0a 	jmp	0x1568	; 0x1568 <__vector_25>
      68:	61 c0       	rjmp	.+194    	; 0x12c <__bad_interrupt>
      6a:	00 00       	nop
      6c:	5f c0       	rjmp	.+190    	; 0x12c <__bad_interrupt>
      6e:	00 00       	nop
      70:	5d c0       	rjmp	.+186    	; 0x12c <__bad_interrupt>
      72:	00 00       	nop
      74:	5b c0       	rjmp	.+182    	; 0x12c <__bad_interrupt>
      76:	00 00       	nop
      78:	59 c0       	rjmp	.+178    	; 0x12c <__bad_interrupt>
      7a:	00 00       	nop
      7c:	57 c0       	rjmp	.+174    	; 0x12c <__bad_interrupt>
      7e:	00 00       	nop
      80:	55 c0       	rjmp	.+170    	; 0x12c <__bad_interrupt>
      82:	00 00       	nop
      84:	53 c0       	rjmp	.+166    	; 0x12c <__bad_interrupt>
      86:	00 00       	nop
      88:	51 c0       	rjmp	.+162    	; 0x12c <__bad_interrupt>
      8a:	00 00       	nop
      8c:	4f c0       	rjmp	.+158    	; 0x12c <__bad_interrupt>
      8e:	00 00       	nop
      90:	0c 94 c4 0a 	jmp	0x1588	; 0x1588 <__vector_36>
      94:	4b c0       	rjmp	.+150    	; 0x12c <__bad_interrupt>
      96:	00 00       	nop
      98:	49 c0       	rjmp	.+146    	; 0x12c <__bad_interrupt>
      9a:	00 00       	nop
      9c:	47 c0       	rjmp	.+142    	; 0x12c <__bad_interrupt>
      9e:	00 00       	nop
      a0:	45 c0       	rjmp	.+138    	; 0x12c <__bad_interrupt>
      a2:	00 00       	nop
      a4:	43 c0       	rjmp	.+134    	; 0x12c <__bad_interrupt>
      a6:	00 00       	nop
      a8:	69 c3       	rjmp	.+1746   	; 0x77c <__vector_42>
      aa:	00 00       	nop
      ac:	3f c0       	rjmp	.+126    	; 0x12c <__bad_interrupt>
      ae:	00 00       	nop
      b0:	3d c0       	rjmp	.+122    	; 0x12c <__bad_interrupt>
      b2:	00 00       	nop
      b4:	3b c0       	rjmp	.+118    	; 0x12c <__bad_interrupt>
      b6:	00 00       	nop
      b8:	39 c0       	rjmp	.+114    	; 0x12c <__bad_interrupt>
      ba:	00 00       	nop
      bc:	37 c0       	rjmp	.+110    	; 0x12c <__bad_interrupt>
      be:	00 00       	nop
      c0:	35 c0       	rjmp	.+106    	; 0x12c <__bad_interrupt>
      c2:	00 00       	nop
      c4:	33 c0       	rjmp	.+102    	; 0x12c <__bad_interrupt>
      c6:	00 00       	nop
      c8:	31 c0       	rjmp	.+98     	; 0x12c <__bad_interrupt>
      ca:	00 00       	nop
      cc:	0c 94 d4 0a 	jmp	0x15a8	; 0x15a8 <__vector_51>
      d0:	2d c0       	rjmp	.+90     	; 0x12c <__bad_interrupt>
      d2:	00 00       	nop
      d4:	2b c0       	rjmp	.+86     	; 0x12c <__bad_interrupt>
      d6:	00 00       	nop
      d8:	0c 94 08 0b 	jmp	0x1610	; 0x1610 <__vector_54>
      dc:	27 c0       	rjmp	.+78     	; 0x12c <__bad_interrupt>
      de:	00 00       	nop
      e0:	25 c0       	rjmp	.+74     	; 0x12c <__bad_interrupt>
	...

000000e4 <__ctors_start>:
      e4:	ed 03       	fmulsu	r22, r21

000000e6 <__ctors_end>:
      e6:	11 24       	eor	r1, r1
      e8:	1f be       	out	0x3f, r1	; 63
      ea:	cf ef       	ldi	r28, 0xFF	; 255
      ec:	d1 e2       	ldi	r29, 0x21	; 33
      ee:	de bf       	out	0x3e, r29	; 62
      f0:	cd bf       	out	0x3d, r28	; 61
      f2:	00 e0       	ldi	r16, 0x00	; 0
      f4:	0c bf       	out	0x3c, r16	; 60

000000f6 <__do_clear_bss>:
      f6:	22 e0       	ldi	r18, 0x02	; 2
      f8:	a0 e0       	ldi	r26, 0x00	; 0
      fa:	b2 e0       	ldi	r27, 0x02	; 2
      fc:	01 c0       	rjmp	.+2      	; 0x100 <.do_clear_bss_start>

000000fe <.do_clear_bss_loop>:
      fe:	1d 92       	st	X+, r1

00000100 <.do_clear_bss_start>:
     100:	a5 39       	cpi	r26, 0x95	; 149
     102:	b2 07       	cpc	r27, r18
     104:	e1 f7       	brne	.-8      	; 0xfe <.do_clear_bss_loop>

00000106 <__do_global_ctors>:
     106:	10 e0       	ldi	r17, 0x00	; 0
     108:	c3 e7       	ldi	r28, 0x73	; 115
     10a:	d0 e0       	ldi	r29, 0x00	; 0
     10c:	00 e0       	ldi	r16, 0x00	; 0
     10e:	06 c0       	rjmp	.+12     	; 0x11c <__do_global_ctors+0x16>
     110:	21 97       	sbiw	r28, 0x01	; 1
     112:	01 09       	sbc	r16, r1
     114:	80 2f       	mov	r24, r16
     116:	fe 01       	movw	r30, r28
     118:	0e 94 65 0d 	call	0x1aca	; 0x1aca <__tablejump2__>
     11c:	c2 37       	cpi	r28, 0x72	; 114
     11e:	d1 07       	cpc	r29, r17
     120:	80 e0       	ldi	r24, 0x00	; 0
     122:	08 07       	cpc	r16, r24
     124:	a9 f7       	brne	.-22     	; 0x110 <__do_global_ctors+0xa>
     126:	03 d0       	rcall	.+6      	; 0x12e <main>
     128:	0c 94 6d 0d 	jmp	0x1ada	; 0x1ada <_exit>

0000012c <__bad_interrupt>:
     12c:	69 cf       	rjmp	.-302    	; 0x0 <__vectors>

0000012e <main>:

#include "RobotDriver.h"

int main(void)
{
	initUART0();
     12e:	0e 94 79 0a 	call	0x14f2	; 0x14f2 <_Z9initUART0v>
	initUART3();
     132:	0e 94 9e 0a 	call	0x153c	; 0x153c <_Z9initUART3v>
	JOYSTICK_INITIALIZE();
     136:	0e 94 85 0a 	call	0x150a	; 0x150a <_Z9initUART2v>
	init_master();
     13a:	c4 d5       	rcall	.+2952   	; 0xcc4 <_Z11init_masterv>
	rack_init();
     13c:	5c d1       	rcall	.+696    	; 0x3f6 <_Z9rack_initv>
     13e:	78 94       	sei
	sei();
     140:	80 91 78 02 	lds	r24, 0x0278	; 0x800278 <auto_mode>
    while (1) 
    {
		if(auto_mode)
     144:	88 23       	and	r24, r24
     146:	11 f0       	breq	.+4      	; 0x14c <main+0x1e>
			operate_master_auto();
     148:	8f d6       	rcall	.+3358   	; 0xe68 <_Z19operate_master_autov>
     14a:	01 c0       	rjmp	.+2      	; 0x14e <main+0x20>
		else
			operate_master_manual();
     14c:	ca d7       	rcall	.+3988   	; 0x10e2 <_Z21operate_master_manualv>
     14e:	80 91 44 02 	lds	r24, 0x0244	; 0x800244 <send_time>
			
		if (send_time)
     152:	88 23       	and	r24, r24
     154:	a9 f3       	breq	.-22     	; 0x140 <main+0x12>
		{
			Send_data_to_Slave();
     156:	36 d6       	rcall	.+3180   	; 0xdc4 <_Z18Send_data_to_Slavev>
     158:	10 92 44 02 	sts	0x0244, r1	; 0x800244 <send_time>
			send_time = false;
     15c:	f1 cf       	rjmp	.-30     	; 0x140 <main+0x12>

0000015e <_ZN3PID7Set_PidEfff>:
     15e:	cf 92       	push	r12


#include "PID.h"

void PID::Set_Pid(float kP,float kI,float kD)
{
     160:	df 92       	push	r13
     162:	ef 92       	push	r14
     164:	ff 92       	push	r15
     166:	0f 93       	push	r16
     168:	1f 93       	push	r17
     16a:	fc 01       	movw	r30, r24
	kp = kP;
     16c:	40 83       	st	Z, r20
     16e:	51 83       	std	Z+1, r21	; 0x01
     170:	62 83       	std	Z+2, r22	; 0x02
     172:	73 83       	std	Z+3, r23	; 0x03
	ki = kI;
     174:	04 83       	std	Z+4, r16	; 0x04
     176:	15 83       	std	Z+5, r17	; 0x05
     178:	26 83       	std	Z+6, r18	; 0x06
     17a:	37 83       	std	Z+7, r19	; 0x07
	kd = kD;	
     17c:	c0 86       	std	Z+8, r12	; 0x08
     17e:	d1 86       	std	Z+9, r13	; 0x09
     180:	e2 86       	std	Z+10, r14	; 0x0a
     182:	f3 86       	std	Z+11, r15	; 0x0b
}
     184:	1f 91       	pop	r17
     186:	0f 91       	pop	r16
     188:	ff 90       	pop	r15
     18a:	ef 90       	pop	r14
     18c:	df 90       	pop	r13
     18e:	cf 90       	pop	r12
     190:	08 95       	ret

00000192 <_ZN3PID7ComputeEi>:


float PID::Compute(int input)
{
     192:	8f 92       	push	r8
     194:	9f 92       	push	r9
     196:	af 92       	push	r10
     198:	bf 92       	push	r11
     19a:	ef 92       	push	r14
     19c:	ff 92       	push	r15
     19e:	0f 93       	push	r16
     1a0:	1f 93       	push	r17
     1a2:	cf 93       	push	r28
     1a4:	df 93       	push	r29
     1a6:	ec 01       	movw	r28, r24
     1a8:	7b 01       	movw	r14, r22
	error = sp - input;
     1aa:	6c 85       	ldd	r22, Y+12	; 0x0c
     1ac:	7d 85       	ldd	r23, Y+13	; 0x0d
     1ae:	8b 01       	movw	r16, r22
     1b0:	0e 19       	sub	r16, r14
     1b2:	1f 09       	sbc	r17, r15
     1b4:	1f 87       	std	Y+15, r17	; 0x0f
     1b6:	0e 87       	std	Y+14, r16	; 0x0e
	
	errorsum += error;
     1b8:	8a 89       	ldd	r24, Y+18	; 0x12
     1ba:	9b 89       	ldd	r25, Y+19	; 0x13
     1bc:	80 0f       	add	r24, r16
     1be:	91 1f       	adc	r25, r17
	
	//Limiting I-term
	if (errorsum > 125)
     1c0:	8e 37       	cpi	r24, 0x7E	; 126
     1c2:	91 05       	cpc	r25, r1
     1c4:	2c f0       	brlt	.+10     	; 0x1d0 <_ZN3PID7ComputeEi+0x3e>
		errorsum = 125;
     1c6:	8d e7       	ldi	r24, 0x7D	; 125
     1c8:	90 e0       	ldi	r25, 0x00	; 0
     1ca:	9b 8b       	std	Y+19, r25	; 0x13
     1cc:	8a 8b       	std	Y+18, r24	; 0x12
     1ce:	0b c0       	rjmp	.+22     	; 0x1e6 <_ZN3PID7ComputeEi+0x54>
	else if (errorsum < -125)
     1d0:	83 38       	cpi	r24, 0x83	; 131
     1d2:	2f ef       	ldi	r18, 0xFF	; 255
     1d4:	92 07       	cpc	r25, r18
     1d6:	1c f0       	brlt	.+6      	; 0x1de <_ZN3PID7ComputeEi+0x4c>

float PID::Compute(int input)
{
	error = sp - input;
	
	errorsum += error;
     1d8:	9b 8b       	std	Y+19, r25	; 0x13
     1da:	8a 8b       	std	Y+18, r24	; 0x12
     1dc:	04 c0       	rjmp	.+8      	; 0x1e6 <_ZN3PID7ComputeEi+0x54>
	
	//Limiting I-term
	if (errorsum > 125)
		errorsum = 125;
	else if (errorsum < -125)
		errorsum = -125;
     1de:	83 e8       	ldi	r24, 0x83	; 131
     1e0:	9f ef       	ldi	r25, 0xFF	; 255
     1e2:	9b 8b       	std	Y+19, r25	; 0x13
     1e4:	8a 8b       	std	Y+18, r24	; 0x12
	
	cv += error*kp + errorsum*ki - kd*(input-lastinput);
     1e6:	6a 89       	ldd	r22, Y+18	; 0x12
     1e8:	7b 89       	ldd	r23, Y+19	; 0x13
     1ea:	07 2e       	mov	r0, r23
     1ec:	00 0c       	add	r0, r0
     1ee:	88 0b       	sbc	r24, r24
     1f0:	99 0b       	sbc	r25, r25
     1f2:	0e 94 2b 0c 	call	0x1856	; 0x1856 <__floatsisf>
     1f6:	2c 81       	ldd	r18, Y+4	; 0x04
     1f8:	3d 81       	ldd	r19, Y+5	; 0x05
     1fa:	4e 81       	ldd	r20, Y+6	; 0x06
     1fc:	5f 81       	ldd	r21, Y+7	; 0x07
     1fe:	0e 94 db 0c 	call	0x19b6	; 0x19b6 <__mulsf3>
     202:	4b 01       	movw	r8, r22
     204:	5c 01       	movw	r10, r24
     206:	b8 01       	movw	r22, r16
     208:	11 0f       	add	r17, r17
     20a:	88 0b       	sbc	r24, r24
     20c:	99 0b       	sbc	r25, r25
     20e:	0e 94 2b 0c 	call	0x1856	; 0x1856 <__floatsisf>
     212:	28 81       	ld	r18, Y
     214:	39 81       	ldd	r19, Y+1	; 0x01
     216:	4a 81       	ldd	r20, Y+2	; 0x02
     218:	5b 81       	ldd	r21, Y+3	; 0x03
     21a:	0e 94 db 0c 	call	0x19b6	; 0x19b6 <__mulsf3>
     21e:	9b 01       	movw	r18, r22
     220:	ac 01       	movw	r20, r24
     222:	c5 01       	movw	r24, r10
     224:	b4 01       	movw	r22, r8
     226:	0e 94 28 0b 	call	0x1650	; 0x1650 <__addsf3>
     22a:	4b 01       	movw	r8, r22
     22c:	5c 01       	movw	r10, r24
     22e:	88 89       	ldd	r24, Y+16	; 0x10
     230:	99 89       	ldd	r25, Y+17	; 0x11
     232:	b7 01       	movw	r22, r14
     234:	68 1b       	sub	r22, r24
     236:	79 0b       	sbc	r23, r25
     238:	07 2e       	mov	r0, r23
     23a:	00 0c       	add	r0, r0
     23c:	88 0b       	sbc	r24, r24
     23e:	99 0b       	sbc	r25, r25
     240:	0e 94 2b 0c 	call	0x1856	; 0x1856 <__floatsisf>
     244:	28 85       	ldd	r18, Y+8	; 0x08
     246:	39 85       	ldd	r19, Y+9	; 0x09
     248:	4a 85       	ldd	r20, Y+10	; 0x0a
     24a:	5b 85       	ldd	r21, Y+11	; 0x0b
     24c:	0e 94 db 0c 	call	0x19b6	; 0x19b6 <__mulsf3>
     250:	9b 01       	movw	r18, r22
     252:	ac 01       	movw	r20, r24
     254:	c5 01       	movw	r24, r10
     256:	b4 01       	movw	r22, r8
     258:	0e 94 27 0b 	call	0x164e	; 0x164e <__subsf3>
     25c:	2c 89       	ldd	r18, Y+20	; 0x14
     25e:	3d 89       	ldd	r19, Y+21	; 0x15
     260:	4e 89       	ldd	r20, Y+22	; 0x16
     262:	5f 89       	ldd	r21, Y+23	; 0x17
     264:	0e 94 28 0b 	call	0x1650	; 0x1650 <__addsf3>
     268:	6c 8b       	std	Y+20, r22	; 0x14
     26a:	7d 8b       	std	Y+21, r23	; 0x15
     26c:	8e 8b       	std	Y+22, r24	; 0x16
     26e:	9f 8b       	std	Y+23, r25	; 0x17
	
	lastinput = input;
     270:	f9 8a       	std	Y+17, r15	; 0x11
     272:	e8 8a       	std	Y+16, r14	; 0x10
	return cv;
}
     274:	df 91       	pop	r29
     276:	cf 91       	pop	r28
     278:	1f 91       	pop	r17
     27a:	0f 91       	pop	r16
     27c:	ff 90       	pop	r15
     27e:	ef 90       	pop	r14
     280:	bf 90       	pop	r11
     282:	af 90       	pop	r10
     284:	9f 90       	pop	r9
     286:	8f 90       	pop	r8
     288:	08 95       	ret

0000028a <_ZN3PID13angle_ComputeEi>:

float PID::angle_Compute(int input)
{
     28a:	8f 92       	push	r8
     28c:	9f 92       	push	r9
     28e:	af 92       	push	r10
     290:	bf 92       	push	r11
     292:	ef 92       	push	r14
     294:	ff 92       	push	r15
     296:	0f 93       	push	r16
     298:	1f 93       	push	r17
     29a:	cf 93       	push	r28
     29c:	df 93       	push	r29
     29e:	ec 01       	movw	r28, r24
     2a0:	7b 01       	movw	r14, r22
	error = sp - input;
     2a2:	6c 85       	ldd	r22, Y+12	; 0x0c
     2a4:	7d 85       	ldd	r23, Y+13	; 0x0d
     2a6:	8b 01       	movw	r16, r22
     2a8:	0e 19       	sub	r16, r14
     2aa:	1f 09       	sbc	r17, r15
     2ac:	1f 87       	std	Y+15, r17	; 0x0f
     2ae:	0e 87       	std	Y+14, r16	; 0x0e
	
	errorsum += error;
     2b0:	8a 89       	ldd	r24, Y+18	; 0x12
     2b2:	9b 89       	ldd	r25, Y+19	; 0x13
     2b4:	80 0f       	add	r24, r16
     2b6:	91 1f       	adc	r25, r17
	
	//Limiting I-term
	if (errorsum > 125)
     2b8:	8e 37       	cpi	r24, 0x7E	; 126
     2ba:	91 05       	cpc	r25, r1
     2bc:	2c f0       	brlt	.+10     	; 0x2c8 <_ZN3PID13angle_ComputeEi+0x3e>
	errorsum = 125;
     2be:	8d e7       	ldi	r24, 0x7D	; 125
     2c0:	90 e0       	ldi	r25, 0x00	; 0
     2c2:	9b 8b       	std	Y+19, r25	; 0x13
     2c4:	8a 8b       	std	Y+18, r24	; 0x12
     2c6:	0b c0       	rjmp	.+22     	; 0x2de <_ZN3PID13angle_ComputeEi+0x54>
	else if (errorsum < -125)
     2c8:	83 38       	cpi	r24, 0x83	; 131
     2ca:	2f ef       	ldi	r18, 0xFF	; 255
     2cc:	92 07       	cpc	r25, r18
     2ce:	1c f0       	brlt	.+6      	; 0x2d6 <_ZN3PID13angle_ComputeEi+0x4c>

float PID::angle_Compute(int input)
{
	error = sp - input;
	
	errorsum += error;
     2d0:	9b 8b       	std	Y+19, r25	; 0x13
     2d2:	8a 8b       	std	Y+18, r24	; 0x12
     2d4:	04 c0       	rjmp	.+8      	; 0x2de <_ZN3PID13angle_ComputeEi+0x54>
	
	//Limiting I-term
	if (errorsum > 125)
	errorsum = 125;
	else if (errorsum < -125)
	errorsum = -125;
     2d6:	83 e8       	ldi	r24, 0x83	; 131
     2d8:	9f ef       	ldi	r25, 0xFF	; 255
     2da:	9b 8b       	std	Y+19, r25	; 0x13
     2dc:	8a 8b       	std	Y+18, r24	; 0x12
	
	cv = error*kp + errorsum*ki - kd*(input-lastinput);
     2de:	6a 89       	ldd	r22, Y+18	; 0x12
     2e0:	7b 89       	ldd	r23, Y+19	; 0x13
     2e2:	07 2e       	mov	r0, r23
     2e4:	00 0c       	add	r0, r0
     2e6:	88 0b       	sbc	r24, r24
     2e8:	99 0b       	sbc	r25, r25
     2ea:	0e 94 2b 0c 	call	0x1856	; 0x1856 <__floatsisf>
     2ee:	2c 81       	ldd	r18, Y+4	; 0x04
     2f0:	3d 81       	ldd	r19, Y+5	; 0x05
     2f2:	4e 81       	ldd	r20, Y+6	; 0x06
     2f4:	5f 81       	ldd	r21, Y+7	; 0x07
     2f6:	0e 94 db 0c 	call	0x19b6	; 0x19b6 <__mulsf3>
     2fa:	4b 01       	movw	r8, r22
     2fc:	5c 01       	movw	r10, r24
     2fe:	b8 01       	movw	r22, r16
     300:	11 0f       	add	r17, r17
     302:	88 0b       	sbc	r24, r24
     304:	99 0b       	sbc	r25, r25
     306:	0e 94 2b 0c 	call	0x1856	; 0x1856 <__floatsisf>
     30a:	28 81       	ld	r18, Y
     30c:	39 81       	ldd	r19, Y+1	; 0x01
     30e:	4a 81       	ldd	r20, Y+2	; 0x02
     310:	5b 81       	ldd	r21, Y+3	; 0x03
     312:	0e 94 db 0c 	call	0x19b6	; 0x19b6 <__mulsf3>
     316:	9b 01       	movw	r18, r22
     318:	ac 01       	movw	r20, r24
     31a:	c5 01       	movw	r24, r10
     31c:	b4 01       	movw	r22, r8
     31e:	0e 94 28 0b 	call	0x1650	; 0x1650 <__addsf3>
     322:	4b 01       	movw	r8, r22
     324:	5c 01       	movw	r10, r24
     326:	88 89       	ldd	r24, Y+16	; 0x10
     328:	99 89       	ldd	r25, Y+17	; 0x11
     32a:	b7 01       	movw	r22, r14
     32c:	68 1b       	sub	r22, r24
     32e:	79 0b       	sbc	r23, r25
     330:	07 2e       	mov	r0, r23
     332:	00 0c       	add	r0, r0
     334:	88 0b       	sbc	r24, r24
     336:	99 0b       	sbc	r25, r25
     338:	0e 94 2b 0c 	call	0x1856	; 0x1856 <__floatsisf>
     33c:	28 85       	ldd	r18, Y+8	; 0x08
     33e:	39 85       	ldd	r19, Y+9	; 0x09
     340:	4a 85       	ldd	r20, Y+10	; 0x0a
     342:	5b 85       	ldd	r21, Y+11	; 0x0b
     344:	0e 94 db 0c 	call	0x19b6	; 0x19b6 <__mulsf3>
     348:	9b 01       	movw	r18, r22
     34a:	ac 01       	movw	r20, r24
     34c:	c5 01       	movw	r24, r10
     34e:	b4 01       	movw	r22, r8
     350:	0e 94 27 0b 	call	0x164e	; 0x164e <__subsf3>
     354:	6c 8b       	std	Y+20, r22	; 0x14
     356:	7d 8b       	std	Y+21, r23	; 0x15
     358:	8e 8b       	std	Y+22, r24	; 0x16
     35a:	9f 8b       	std	Y+23, r25	; 0x17
	
	lastinput = input;
     35c:	f9 8a       	std	Y+17, r15	; 0x11
     35e:	e8 8a       	std	Y+16, r14	; 0x10
	return cv;
}
     360:	df 91       	pop	r29
     362:	cf 91       	pop	r28
     364:	1f 91       	pop	r17
     366:	0f 91       	pop	r16
     368:	ff 90       	pop	r15
     36a:	ef 90       	pop	r14
     36c:	bf 90       	pop	r11
     36e:	af 90       	pop	r10
     370:	9f 90       	pop	r9
     372:	8f 90       	pop	r8
     374:	08 95       	ret

00000376 <_Z21initialise_timeperiodv>:

//initialize global timer

void initialise_timeperiod()
{
	TCCR2B |= (1<<CS22);
     376:	e1 eb       	ldi	r30, 0xB1	; 177
     378:	f0 e0       	ldi	r31, 0x00	; 0
     37a:	80 81       	ld	r24, Z
     37c:	84 60       	ori	r24, 0x04	; 4
     37e:	80 83       	st	Z, r24
	TIMSK2 |= (1<<TOIE2);
     380:	e0 e7       	ldi	r30, 0x70	; 112
     382:	f0 e0       	ldi	r31, 0x00	; 0
     384:	80 81       	ld	r24, Z
     386:	81 60       	ori	r24, 0x01	; 1
     388:	80 83       	st	Z, r24
	TCNT2 = 0;
     38a:	10 92 b2 00 	sts	0x00B2, r1	; 0x8000b2 <__TEXT_REGION_LENGTH__+0x7000b2>
     38e:	08 95       	ret

00000390 <_Z20close_all_pneumaticsv>:
	}
}

void close_all_pneumatics()
{
	RACK_GRIP_OPEN();
     390:	10 98       	cbi	0x02, 0	; 2
	RACK_LIFT_CLOSE();
     392:	14 98       	cbi	0x02, 4	; 2
	SHUTTCOCK_GRIP_CLOSE();
     394:	12 98       	cbi	0x02, 2	; 2
	SHUTTCOCK_PASS_CLOSE();
     396:	47 98       	cbi	0x08, 7	; 8
     398:	08 95       	ret

0000039a <_Z21initialize_pneumaticsv>:
}

void initialize_pneumatics()
{
	OUTPUT(RACK_GRAB);
     39a:	08 9a       	sbi	0x01, 0	; 1
	OUTPUT(LIFT_RACK);
     39c:	0c 9a       	sbi	0x01, 4	; 1
	OUTPUT(SC_PASS);
     39e:	3f 9a       	sbi	0x07, 7	; 7
	OUTPUT(SC_GRIPPER);
     3a0:	0a 9a       	sbi	0x01, 2	; 1
	close_all_pneumatics();
     3a2:	f6 cf       	rjmp	.-20     	; 0x390 <_Z20close_all_pneumaticsv>
     3a4:	08 95       	ret

000003a6 <_Z16enable_proximityv>:
}

void enable_proximity()
{
	uint8_t SREGvalue = SREG;
     3a6:	9f b7       	in	r25, 0x3f	; 63
	cli();
     3a8:	f8 94       	cli
	EIMSK |= (1<<PROXIMITY_INT);		//setting INT pin
     3aa:	ed 9a       	sbi	0x1d, 5	; 29
	EICRB |= (1<<PROXIMITY_ISC1);	//falling edge
     3ac:	ea e6       	ldi	r30, 0x6A	; 106
     3ae:	f0 e0       	ldi	r31, 0x00	; 0
     3b0:	80 81       	ld	r24, Z
     3b2:	88 60       	ori	r24, 0x08	; 8
     3b4:	80 83       	st	Z, r24
	EIFR |= (1<<PROXIMITY_INTF);	    //clear int flag
     3b6:	e5 9a       	sbi	0x1c, 5	; 28
	SREG = SREGvalue;
     3b8:	9f bf       	out	0x3f, r25	; 63
     3ba:	08 95       	ret

000003bc <_Z17disable_proximityv>:
}

void disable_proximity()
{
	EIFR |= (1<<PROXIMITY_INTF);
     3bc:	e5 9a       	sbi	0x1c, 5	; 28
	EIMSK &= ~(1<<PROXIMITY_INT);		
     3be:	ed 98       	cbi	0x1d, 5	; 29
     3c0:	08 95       	ret

000003c2 <_Z17enable_golden_eyev>:
}

void enable_golden_eye()
{
	uint8_t SREGvalue = SREG;
     3c2:	9f b7       	in	r25, 0x3f	; 63
	cli();
     3c4:	f8 94       	cli
	EIMSK |= (1<<GOLDENEYE_INT);		//setting INT pin
     3c6:	ea 9a       	sbi	0x1d, 2	; 29
	EICRA |= (1<<GOLDENEYE_ISC1);	//falling edge
     3c8:	e9 e6       	ldi	r30, 0x69	; 105
     3ca:	f0 e0       	ldi	r31, 0x00	; 0
     3cc:	80 81       	ld	r24, Z
     3ce:	80 62       	ori	r24, 0x20	; 32
     3d0:	80 83       	st	Z, r24
	EIFR |= (1<<GOLDENEYE_INTF);	    //clear int flag
     3d2:	e2 9a       	sbi	0x1c, 2	; 28
	SREG = SREGvalue;
     3d4:	9f bf       	out	0x3f, r25	; 63
     3d6:	08 95       	ret

000003d8 <_Z18disable_golden_eyev>:
}

void disable_golden_eye()
{
	EIFR |= (1<<GOLDENEYE_INTF);
     3d8:	e2 9a       	sbi	0x1c, 2	; 28
	EIMSK &= ~(1<<GOLDENEYE_INT);
     3da:	ea 98       	cbi	0x1d, 2	; 29
     3dc:	08 95       	ret

000003de <_Z6millisv>:
//calculate the time from begining of robot start 

unsigned long millis()
{
	unsigned long m;
	uint8_t oldSREG = SREG;
     3de:	2f b7       	in	r18, 0x3f	; 63
	
	// disable interrupts while we read timer2_millis or we might get an
	// inconsistent value 
	cli();
     3e0:	f8 94       	cli
	m = timer2_millis;
     3e2:	60 91 0f 02 	lds	r22, 0x020F	; 0x80020f <timer2_millis>
     3e6:	70 91 10 02 	lds	r23, 0x0210	; 0x800210 <timer2_millis+0x1>
     3ea:	80 91 11 02 	lds	r24, 0x0211	; 0x800211 <timer2_millis+0x2>
     3ee:	90 91 12 02 	lds	r25, 0x0212	; 0x800212 <timer2_millis+0x3>
	SREG = oldSREG;
     3f2:	2f bf       	out	0x3f, r18	; 63
	
	return m;
}
     3f4:	08 95       	ret

000003f6 <_Z9rack_initv>:
	TCNT2 = 0;
}


void rack_init()
{
     3f6:	cf 92       	push	r12
     3f8:	df 92       	push	r13
     3fa:	ef 92       	push	r14
     3fc:	ff 92       	push	r15
     3fe:	0f 93       	push	r16
     400:	1f 93       	push	r17
	
	Geneva_Start = false;
     402:	10 92 0a 02 	sts	0x020A, r1	; 0x80020a <Geneva_Start>
	auto_move_rack = false;
     406:	10 92 08 02 	sts	0x0208, r1	; 0x800208 <auto_move_rack>
	stop_rack_initial = false;
     40a:	10 92 07 02 	sts	0x0207, r1	; 0x800207 <stop_rack_initial>
	stop_rack_final = false;
     40e:	10 92 06 02 	sts	0x0206, r1	; 0x800206 <stop_rack_final>
	throw_rack = false;
     412:	10 92 05 02 	sts	0x0205, r1	; 0x800205 <throw_rack>
	rack_throw_auto = false;
     416:	10 92 04 02 	sts	0x0204, r1	; 0x800204 <rack_throw_auto>
	pneumatic_geneva_start = false;
     41a:	10 92 02 02 	sts	0x0202, r1	; 0x800202 <pneumatic_geneva_start>
	inside_robot = true;
     41e:	81 e0       	ldi	r24, 0x01	; 1
     420:	80 93 01 02 	sts	0x0201, r24	; 0x800201 <inside_robot>
    pass_the_shuttcock = false;
     424:	10 92 00 02 	sts	0x0200, r1	; 0x800200 <_edata>
	pid_compute_flag = false;
     428:	10 92 43 02 	sts	0x0243, r1	; 0x800243 <pid_compute_flag>
	
	pneumatic_geneva_time = 0;
     42c:	10 92 49 02 	sts	0x0249, r1	; 0x800249 <pneumatic_geneva_time>
     430:	10 92 4a 02 	sts	0x024A, r1	; 0x80024a <pneumatic_geneva_time+0x1>
     434:	10 92 4b 02 	sts	0x024B, r1	; 0x80024b <pneumatic_geneva_time+0x2>
     438:	10 92 4c 02 	sts	0x024C, r1	; 0x80024c <pneumatic_geneva_time+0x3>
	send_time = false;
     43c:	10 92 44 02 	sts	0x0244, r1	; 0x800244 <send_time>
	
	
	
	RackMotor.Initialise(1);
     440:	61 e0       	ldi	r22, 0x01	; 1
     442:	8c e6       	ldi	r24, 0x6C	; 108
     444:	92 e0       	ldi	r25, 0x02	; 2
     446:	e9 d2       	rcall	.+1490   	; 0xa1a <_ZN10Rack_Motor10InitialiseEh>
	GenevaMotor.Initialise(2);
     448:	62 e0       	ldi	r22, 0x02	; 2
     44a:	8b e6       	ldi	r24, 0x6B	; 107
     44c:	92 e0       	ldi	r25, 0x02	; 2
     44e:	e5 d2       	rcall	.+1482   	; 0xa1a <_ZN10Rack_Motor10InitialiseEh>
	
	RackEncoder.Initialise(1);
     450:	61 e0       	ldi	r22, 0x01	; 1
     452:	8e e5       	ldi	r24, 0x5E	; 94
     454:	92 e0       	ldi	r25, 0x02	; 2
     456:	40 d2       	rcall	.+1152   	; 0x8d8 <_ZN12Rack_Encoder10InitialiseEh>
	GenevaEncoder.Initialise(2);
     458:	62 e0       	ldi	r22, 0x02	; 2
     45a:	81 e5       	ldi	r24, 0x51	; 81
     45c:	92 e0       	ldi	r25, 0x02	; 2
     45e:	3c d2       	rcall	.+1144   	; 0x8d8 <_ZN12Rack_Encoder10InitialiseEh>
	
	
	INPUT(LTSWITCH_RACK_HOME);
     460:	24 98       	cbi	0x04, 4	; 4
	INPUT(LTSWITCH_RACK_FINAL);
     462:	e1 e0       	ldi	r30, 0x01	; 1
     464:	f1 e0       	ldi	r31, 0x01	; 1
     466:	80 81       	ld	r24, Z
     468:	8f 7b       	andi	r24, 0xBF	; 191
     46a:	80 83       	st	Z, r24
	SET(LTSWITCH_RACK_FINAL);
     46c:	e2 e0       	ldi	r30, 0x02	; 2
     46e:	f1 e0       	ldi	r31, 0x01	; 1
     470:	80 81       	ld	r24, Z
     472:	80 64       	ori	r24, 0x40	; 64
	SET(LTSWITCH_RACK_HOME);
     474:	80 83       	st	Z, r24
	
	initialize_pneumatics();
     476:	2c 9a       	sbi	0x05, 4	; 5
     478:	90 df       	rcall	.-224    	; 0x39a <_Z21initialize_pneumaticsv>
	
	//home position of rack rotate
	while(READ(LTSWITCH_RACK_HOME))
     47a:	1c 9b       	sbis	0x03, 4	; 3
	{
		RackMotor.SetOcrValue(RACK_SPEED_MOTOR);
     47c:	07 c0       	rjmp	.+14     	; 0x48c <__LOCK_REGION_LENGTH__+0x8c>
     47e:	62 e3       	ldi	r22, 0x32	; 50
     480:	70 e0       	ldi	r23, 0x00	; 0
     482:	8c e6       	ldi	r24, 0x6C	; 108
     484:	92 e0       	ldi	r25, 0x02	; 2
	SET(LTSWITCH_RACK_HOME);
	
	initialize_pneumatics();
	
	//home position of rack rotate
	while(READ(LTSWITCH_RACK_HOME))
     486:	9e d2       	rcall	.+1340   	; 0x9c4 <_ZN10Rack_Motor11SetOcrValueEi>
     488:	1c 99       	sbic	0x03, 4	; 3
	{
		RackMotor.SetOcrValue(RACK_SPEED_MOTOR);
	}
	
	previous_time = millis();
     48a:	f9 cf       	rjmp	.-14     	; 0x47e <__LOCK_REGION_LENGTH__+0x7e>
     48c:	a8 df       	rcall	.-176    	; 0x3de <_Z6millisv>
     48e:	60 93 4d 02 	sts	0x024D, r22	; 0x80024d <previous_time>
     492:	70 93 4e 02 	sts	0x024E, r23	; 0x80024e <previous_time+0x1>
     496:	80 93 4f 02 	sts	0x024F, r24	; 0x80024f <previous_time+0x2>
     49a:	90 93 50 02 	sts	0x0250, r25	; 0x800250 <previous_time+0x3>
	
	RackMotor.StopMotor();
     49e:	8c e6       	ldi	r24, 0x6C	; 108
     4a0:	92 e0       	ldi	r25, 0x02	; 2
     4a2:	7b d2       	rcall	.+1270   	; 0x99a <_ZN10Rack_Motor9StopMotorEv>
	
	RackEncoder.angle =0;
     4a4:	10 92 67 02 	sts	0x0267, r1	; 0x800267 <RackEncoder+0x9>
     4a8:	10 92 68 02 	sts	0x0268, r1	; 0x800268 <RackEncoder+0xa>
     4ac:	10 92 69 02 	sts	0x0269, r1	; 0x800269 <RackEncoder+0xb>
     4b0:	10 92 6a 02 	sts	0x026A, r1	; 0x80026a <RackEncoder+0xc>
	
	Rack_home_position = true;		// true rack home-position -- initial position and false rack position -- final position
     4b4:	81 e0       	ldi	r24, 0x01	; 1
     4b6:	80 93 09 02 	sts	0x0209, r24	; 0x800209 <Rack_home_position>
	angle_pid.Set_Pid(47.29,0.139,40.30);	//47.29 0.139  29.30
     4ba:	0f 2e       	mov	r0, r31
     4bc:	f3 e3       	ldi	r31, 0x33	; 51
     4be:	cf 2e       	mov	r12, r31
     4c0:	dc 2c       	mov	r13, r12
     4c2:	f1 e2       	ldi	r31, 0x21	; 33
     4c4:	ef 2e       	mov	r14, r31
     4c6:	f2 e4       	ldi	r31, 0x42	; 66
     4c8:	ff 2e       	mov	r15, r31
     4ca:	f0 2d       	mov	r31, r0
     4cc:	04 e0       	ldi	r16, 0x04	; 4
     4ce:	16 e5       	ldi	r17, 0x56	; 86
     4d0:	2e e0       	ldi	r18, 0x0E	; 14
     4d2:	3e e3       	ldi	r19, 0x3E	; 62
     4d4:	46 ef       	ldi	r20, 0xF6	; 246
     4d6:	58 e2       	ldi	r21, 0x28	; 40
     4d8:	6d e3       	ldi	r22, 0x3D	; 61
     4da:	72 e4       	ldi	r23, 0x42	; 66
     4dc:	8b e2       	ldi	r24, 0x2B	; 43
     4de:	92 e0       	ldi	r25, 0x02	; 2
     4e0:	3e de       	rcall	.-900    	; 0x15e <_ZN3PID7Set_PidEfff>
	rack_motor_pid.Set_Pid(3.08,0,9.89);	//3.08 0 9.89
     4e2:	0f 2e       	mov	r0, r31
     4e4:	f1 e7       	ldi	r31, 0x71	; 113
     4e6:	cf 2e       	mov	r12, r31
     4e8:	fd e3       	ldi	r31, 0x3D	; 61
     4ea:	df 2e       	mov	r13, r31
     4ec:	fe e1       	ldi	r31, 0x1E	; 30
     4ee:	ef 2e       	mov	r14, r31
     4f0:	f1 e4       	ldi	r31, 0x41	; 65
     4f2:	ff 2e       	mov	r15, r31
     4f4:	f0 2d       	mov	r31, r0
     4f6:	00 e0       	ldi	r16, 0x00	; 0
     4f8:	10 e0       	ldi	r17, 0x00	; 0
     4fa:	98 01       	movw	r18, r16
     4fc:	48 eb       	ldi	r20, 0xB8	; 184
     4fe:	5e e1       	ldi	r21, 0x1E	; 30
     500:	65 e4       	ldi	r22, 0x45	; 69
     502:	70 e4       	ldi	r23, 0x40	; 64
     504:	83 e1       	ldi	r24, 0x13	; 19
     506:	92 e0       	ldi	r25, 0x02	; 2
	
	//Setting the proximity pins
	INPUT(PROXIMITY_PIN);
     508:	2a de       	rcall	.-940    	; 0x15e <_ZN3PID7Set_PidEfff>
	SET(PROXIMITY_PIN);
     50a:	6d 98       	cbi	0x0d, 5	; 13
	
	//setting the golden rack drop proximity pin
	INPUT(GOLDENEYE_PIN);
     50c:	75 9a       	sbi	0x0e, 5	; 14
	SET(GOLDENEYE_PIN);
     50e:	52 98       	cbi	0x0a, 2	; 10
	
	initialise_timeperiod();
     510:	5a 9a       	sbi	0x0b, 2	; 11
     512:	31 df       	rcall	.-414    	; 0x376 <_Z21initialise_timeperiodv>
}
     514:	1f 91       	pop	r17
     516:	0f 91       	pop	r16
     518:	ff 90       	pop	r15
     51a:	ef 90       	pop	r14
     51c:	df 90       	pop	r13
     51e:	cf 90       	pop	r12
     520:	08 95       	ret

00000522 <_Z16rack_limit_checkv>:


void rack_limit_check()
{
	
	if(!READ(LTSWITCH_RACK_HOME) && stop_rack_initial)	//if reached home position
     522:	1c 99       	sbic	0x03, 4	; 3
     524:	04 c0       	rjmp	.+8      	; 0x52e <_Z16rack_limit_checkv+0xc>
     526:	80 91 07 02 	lds	r24, 0x0207	; 0x800207 <stop_rack_initial>
     52a:	81 11       	cpse	r24, r1
     52c:	0d c0       	rjmp	.+26     	; 0x548 <_Z16rack_limit_checkv+0x26>
		//open rack gripper when reached to home position
		throw_rack = true;
		previous_time = millis();
	}
	
	if(!READ(LTSWITCH_RACK_FINAL) && stop_rack_final)		//if reached final position
     52e:	80 91 00 01 	lds	r24, 0x0100	; 0x800100 <__TEXT_REGION_LENGTH__+0x700100>
     532:	86 fd       	sbrc	r24, 6
     534:	32 c0       	rjmp	.+100    	; 0x59a <_Z16rack_limit_checkv+0x78>
     536:	80 91 06 02 	lds	r24, 0x0206	; 0x800206 <stop_rack_final>
     53a:	81 11       	cpse	r24, r1
     53c:	22 c0       	rjmp	.+68     	; 0x582 <_Z16rack_limit_checkv+0x60>
     53e:	08 95       	ret
		auto_move_rack = false;
		stop_rack_final = false;
		
		if (rack_throw_auto)
		{
			RACK_LIFT_CLOSE();
     540:	14 98       	cbi	0x02, 4	; 2
			rack_throw_auto = false;
     542:	10 92 04 02 	sts	0x0204, r1	; 0x800204 <rack_throw_auto>
		}
	}
}
     546:	08 95       	ret
	public:
		PID():kp(0),ki(0),kd(0),sp(0),error(0),lastinput(0),errorsum(0){};
		inline void Set_P(float kP){kp = kP;};
		inline void Set_I(float kI){ki = kI;};
		inline void Set_D(float kD){kd = kD;};	
		inline void Set_SP(int sP){sp=sP;};
     548:	10 92 20 02 	sts	0x0220, r1	; 0x800220 <rack_motor_pid+0xd>
     54c:	10 92 1f 02 	sts	0x021F, r1	; 0x80021f <rack_motor_pid+0xc>
{
	
	if(!READ(LTSWITCH_RACK_HOME) && stop_rack_initial)	//if reached home position
	{
		rack_motor_pid.Set_SP(0);
		RackEncoder.angle = 0;
     550:	10 92 67 02 	sts	0x0267, r1	; 0x800267 <RackEncoder+0x9>
     554:	10 92 68 02 	sts	0x0268, r1	; 0x800268 <RackEncoder+0xa>
     558:	10 92 69 02 	sts	0x0269, r1	; 0x800269 <RackEncoder+0xb>
     55c:	10 92 6a 02 	sts	0x026A, r1	; 0x80026a <RackEncoder+0xc>
		auto_move_rack = false;
     560:	10 92 08 02 	sts	0x0208, r1	; 0x800208 <auto_move_rack>
		stop_rack_initial = false;
     564:	10 92 07 02 	sts	0x0207, r1	; 0x800207 <stop_rack_initial>
		
		//open rack gripper when reached to home position
		throw_rack = true;
     568:	81 e0       	ldi	r24, 0x01	; 1
     56a:	80 93 05 02 	sts	0x0205, r24	; 0x800205 <throw_rack>
		previous_time = millis();
     56e:	37 df       	rcall	.-402    	; 0x3de <_Z6millisv>
     570:	60 93 4d 02 	sts	0x024D, r22	; 0x80024d <previous_time>
     574:	70 93 4e 02 	sts	0x024E, r23	; 0x80024e <previous_time+0x1>
     578:	80 93 4f 02 	sts	0x024F, r24	; 0x80024f <previous_time+0x2>
     57c:	90 93 50 02 	sts	0x0250, r25	; 0x800250 <previous_time+0x3>
     580:	d6 cf       	rjmp	.-84     	; 0x52e <_Z16rack_limit_checkv+0xc>
     582:	10 92 20 02 	sts	0x0220, r1	; 0x800220 <rack_motor_pid+0xd>
     586:	10 92 1f 02 	sts	0x021F, r1	; 0x80021f <rack_motor_pid+0xc>
	}
	
	if(!READ(LTSWITCH_RACK_FINAL) && stop_rack_final)		//if reached final position
	{
		rack_motor_pid.Set_SP(0);
		auto_move_rack = false;
     58a:	10 92 08 02 	sts	0x0208, r1	; 0x800208 <auto_move_rack>
		stop_rack_final = false;
     58e:	10 92 06 02 	sts	0x0206, r1	; 0x800206 <stop_rack_final>
		
		if (rack_throw_auto)
     592:	80 91 04 02 	lds	r24, 0x0204	; 0x800204 <rack_throw_auto>
     596:	81 11       	cpse	r24, r1
     598:	d3 cf       	rjmp	.-90     	; 0x540 <_Z16rack_limit_checkv+0x1e>
     59a:	08 95       	ret

0000059c <__vector_15>:



//Global timer2 interrupt

ISR(TIMER2_OVF_vect) {
     59c:	1f 92       	push	r1
     59e:	0f 92       	push	r0
     5a0:	0f b6       	in	r0, 0x3f	; 63
     5a2:	0f 92       	push	r0
     5a4:	11 24       	eor	r1, r1
     5a6:	8f 93       	push	r24
     5a8:	9f 93       	push	r25
     5aa:	af 93       	push	r26
     5ac:	bf 93       	push	r27
	timer2_millis += 1;
     5ae:	80 91 0f 02 	lds	r24, 0x020F	; 0x80020f <timer2_millis>
     5b2:	90 91 10 02 	lds	r25, 0x0210	; 0x800210 <timer2_millis+0x1>
     5b6:	a0 91 11 02 	lds	r26, 0x0211	; 0x800211 <timer2_millis+0x2>
     5ba:	b0 91 12 02 	lds	r27, 0x0212	; 0x800212 <timer2_millis+0x3>
     5be:	01 96       	adiw	r24, 0x01	; 1
     5c0:	a1 1d       	adc	r26, r1
     5c2:	b1 1d       	adc	r27, r1
     5c4:	80 93 0f 02 	sts	0x020F, r24	; 0x80020f <timer2_millis>
     5c8:	90 93 10 02 	sts	0x0210, r25	; 0x800210 <timer2_millis+0x1>
     5cc:	a0 93 11 02 	sts	0x0211, r26	; 0x800211 <timer2_millis+0x2>
     5d0:	b0 93 12 02 	sts	0x0212, r27	; 0x800212 <timer2_millis+0x3>
	timer2_fract += 3;
     5d4:	80 91 0b 02 	lds	r24, 0x020B	; 0x80020b <timer2_fract>
     5d8:	90 91 0c 02 	lds	r25, 0x020C	; 0x80020c <timer2_fract+0x1>
     5dc:	a0 91 0d 02 	lds	r26, 0x020D	; 0x80020d <timer2_fract+0x2>
     5e0:	b0 91 0e 02 	lds	r27, 0x020E	; 0x80020e <timer2_fract+0x3>
     5e4:	03 96       	adiw	r24, 0x03	; 3
     5e6:	a1 1d       	adc	r26, r1
     5e8:	b1 1d       	adc	r27, r1
     5ea:	80 93 0b 02 	sts	0x020B, r24	; 0x80020b <timer2_fract>
     5ee:	90 93 0c 02 	sts	0x020C, r25	; 0x80020c <timer2_fract+0x1>
     5f2:	a0 93 0d 02 	sts	0x020D, r26	; 0x80020d <timer2_fract+0x2>
     5f6:	b0 93 0e 02 	sts	0x020E, r27	; 0x80020e <timer2_fract+0x3>
	if (timer2_fract >= 125) {
     5fa:	80 91 0b 02 	lds	r24, 0x020B	; 0x80020b <timer2_fract>
     5fe:	90 91 0c 02 	lds	r25, 0x020C	; 0x80020c <timer2_fract+0x1>
     602:	a0 91 0d 02 	lds	r26, 0x020D	; 0x80020d <timer2_fract+0x2>
     606:	b0 91 0e 02 	lds	r27, 0x020E	; 0x80020e <timer2_fract+0x3>
     60a:	8d 37       	cpi	r24, 0x7D	; 125
     60c:	91 05       	cpc	r25, r1
     60e:	a1 05       	cpc	r26, r1
     610:	b1 05       	cpc	r27, r1
     612:	38 f1       	brcs	.+78     	; 0x662 <__vector_15+0xc6>
		timer2_fract -= 125;
     614:	80 91 0b 02 	lds	r24, 0x020B	; 0x80020b <timer2_fract>
     618:	90 91 0c 02 	lds	r25, 0x020C	; 0x80020c <timer2_fract+0x1>
     61c:	a0 91 0d 02 	lds	r26, 0x020D	; 0x80020d <timer2_fract+0x2>
     620:	b0 91 0e 02 	lds	r27, 0x020E	; 0x80020e <timer2_fract+0x3>
     624:	8d 57       	subi	r24, 0x7D	; 125
     626:	91 09       	sbc	r25, r1
     628:	a1 09       	sbc	r26, r1
     62a:	b1 09       	sbc	r27, r1
     62c:	80 93 0b 02 	sts	0x020B, r24	; 0x80020b <timer2_fract>
     630:	90 93 0c 02 	sts	0x020C, r25	; 0x80020c <timer2_fract+0x1>
     634:	a0 93 0d 02 	sts	0x020D, r26	; 0x80020d <timer2_fract+0x2>
     638:	b0 93 0e 02 	sts	0x020E, r27	; 0x80020e <timer2_fract+0x3>
		timer2_millis += 1;
     63c:	80 91 0f 02 	lds	r24, 0x020F	; 0x80020f <timer2_millis>
     640:	90 91 10 02 	lds	r25, 0x0210	; 0x800210 <timer2_millis+0x1>
     644:	a0 91 11 02 	lds	r26, 0x0211	; 0x800211 <timer2_millis+0x2>
     648:	b0 91 12 02 	lds	r27, 0x0212	; 0x800212 <timer2_millis+0x3>
     64c:	01 96       	adiw	r24, 0x01	; 1
     64e:	a1 1d       	adc	r26, r1
     650:	b1 1d       	adc	r27, r1
     652:	80 93 0f 02 	sts	0x020F, r24	; 0x80020f <timer2_millis>
     656:	90 93 10 02 	sts	0x0210, r25	; 0x800210 <timer2_millis+0x1>
     65a:	a0 93 11 02 	sts	0x0211, r26	; 0x800211 <timer2_millis+0x2>
     65e:	b0 93 12 02 	sts	0x0212, r27	; 0x800212 <timer2_millis+0x3>
	}
}
     662:	bf 91       	pop	r27
     664:	af 91       	pop	r26
     666:	9f 91       	pop	r25
     668:	8f 91       	pop	r24
     66a:	0f 90       	pop	r0
     66c:	0f be       	out	0x3f, r0	; 63
     66e:	0f 90       	pop	r0
     670:	1f 90       	pop	r1
     672:	18 95       	reti

00000674 <__vector_2>:

//Rack motor using veitnamese motor
ISR(INT_VECTR)
{
     674:	1f 92       	push	r1
     676:	0f 92       	push	r0
     678:	0f b6       	in	r0, 0x3f	; 63
     67a:	0f 92       	push	r0
     67c:	11 24       	eor	r1, r1
     67e:	0b b6       	in	r0, 0x3b	; 59
     680:	0f 92       	push	r0
     682:	8f 93       	push	r24
     684:	9f 93       	push	r25
     686:	af 93       	push	r26
     688:	bf 93       	push	r27
     68a:	ef 93       	push	r30
     68c:	ff 93       	push	r31
	if(bit_is_clear(ENCODERR_CHAPORTPIN,ENCODERR_CHBPIN))		//ENCODER_CHAPORTPIN,ENCODER_CHBPIN
     68e:	95 99       	sbic	0x12, 5	; 18
     690:	19 c0       	rjmp	.+50     	; 0x6c4 <__vector_2+0x50>
	void Init_Interrupts();
	void Init_Timers();
	inline long int Get_Speed(){return speed;};
	inline void Set_Speed(int val){speed = val;};
	inline void incCount(){pprcount++;};
	inline void dcrCount(){pprcount--;};
     692:	ee e5       	ldi	r30, 0x5E	; 94
     694:	f2 e0       	ldi	r31, 0x02	; 2
     696:	85 81       	ldd	r24, Z+5	; 0x05
     698:	96 81       	ldd	r25, Z+6	; 0x06
     69a:	a7 81       	ldd	r26, Z+7	; 0x07
     69c:	b0 85       	ldd	r27, Z+8	; 0x08
     69e:	01 97       	sbiw	r24, 0x01	; 1
     6a0:	a1 09       	sbc	r26, r1
     6a2:	b1 09       	sbc	r27, r1
     6a4:	85 83       	std	Z+5, r24	; 0x05
     6a6:	96 83       	std	Z+6, r25	; 0x06
     6a8:	a7 83       	std	Z+7, r26	; 0x07
     6aa:	b0 87       	std	Z+8, r27	; 0x08
	{
		RackEncoder.dcrCount();
		RackEncoder.angle--;
     6ac:	81 85       	ldd	r24, Z+9	; 0x09
     6ae:	92 85       	ldd	r25, Z+10	; 0x0a
     6b0:	a3 85       	ldd	r26, Z+11	; 0x0b
     6b2:	b4 85       	ldd	r27, Z+12	; 0x0c
     6b4:	01 97       	sbiw	r24, 0x01	; 1
     6b6:	a1 09       	sbc	r26, r1
     6b8:	b1 09       	sbc	r27, r1
     6ba:	81 87       	std	Z+9, r24	; 0x09
     6bc:	92 87       	std	Z+10, r25	; 0x0a
     6be:	a3 87       	std	Z+11, r26	; 0x0b
     6c0:	b4 87       	std	Z+12, r27	; 0x0c
     6c2:	18 c0       	rjmp	.+48     	; 0x6f4 <__vector_2+0x80>
	void Initialise(uint8_t x);
	void Init_Interrupts();
	void Init_Timers();
	inline long int Get_Speed(){return speed;};
	inline void Set_Speed(int val){speed = val;};
	inline void incCount(){pprcount++;};
     6c4:	ee e5       	ldi	r30, 0x5E	; 94
     6c6:	f2 e0       	ldi	r31, 0x02	; 2
     6c8:	85 81       	ldd	r24, Z+5	; 0x05
     6ca:	96 81       	ldd	r25, Z+6	; 0x06
     6cc:	a7 81       	ldd	r26, Z+7	; 0x07
     6ce:	b0 85       	ldd	r27, Z+8	; 0x08
     6d0:	01 96       	adiw	r24, 0x01	; 1
     6d2:	a1 1d       	adc	r26, r1
     6d4:	b1 1d       	adc	r27, r1
     6d6:	85 83       	std	Z+5, r24	; 0x05
     6d8:	96 83       	std	Z+6, r25	; 0x06
     6da:	a7 83       	std	Z+7, r26	; 0x07
     6dc:	b0 87       	std	Z+8, r27	; 0x08
	}
	else
	{
		RackEncoder.incCount();
		RackEncoder.angle++;
     6de:	81 85       	ldd	r24, Z+9	; 0x09
     6e0:	92 85       	ldd	r25, Z+10	; 0x0a
     6e2:	a3 85       	ldd	r26, Z+11	; 0x0b
     6e4:	b4 85       	ldd	r27, Z+12	; 0x0c
     6e6:	01 96       	adiw	r24, 0x01	; 1
     6e8:	a1 1d       	adc	r26, r1
     6ea:	b1 1d       	adc	r27, r1
     6ec:	81 87       	std	Z+9, r24	; 0x09
     6ee:	92 87       	std	Z+10, r25	; 0x0a
     6f0:	a3 87       	std	Z+11, r26	; 0x0b
     6f2:	b4 87       	std	Z+12, r27	; 0x0c
	}
	
}
     6f4:	ff 91       	pop	r31
     6f6:	ef 91       	pop	r30
     6f8:	bf 91       	pop	r27
     6fa:	af 91       	pop	r26
     6fc:	9f 91       	pop	r25
     6fe:	8f 91       	pop	r24
     700:	0f 90       	pop	r0
     702:	0b be       	out	0x3b, r0	; 59
     704:	0f 90       	pop	r0
     706:	0f be       	out	0x3f, r0	; 63
     708:	0f 90       	pop	r0
     70a:	1f 90       	pop	r1
     70c:	18 95       	reti

0000070e <__vector_1>:

//geneva motor cytron

ISR(INT_VECTG)
{
     70e:	1f 92       	push	r1
     710:	0f 92       	push	r0
     712:	0f b6       	in	r0, 0x3f	; 63
     714:	0f 92       	push	r0
     716:	11 24       	eor	r1, r1
     718:	0b b6       	in	r0, 0x3b	; 59
     71a:	0f 92       	push	r0
     71c:	8f 93       	push	r24
     71e:	9f 93       	push	r25
     720:	af 93       	push	r26
     722:	bf 93       	push	r27
     724:	ef 93       	push	r30
     726:	ff 93       	push	r31
	if(bit_is_clear(ENCODERG_CHAPORTPIN,ENCODERG_CHBPIN))		//ENCODER_CHAPORTPIN,ENCODER_CHBPIN
     728:	63 99       	sbic	0x0c, 3	; 12
     72a:	0e c0       	rjmp	.+28     	; 0x748 <__vector_1+0x3a>
	{
		GenevaEncoder.angle++;
     72c:	e1 e5       	ldi	r30, 0x51	; 81
     72e:	f2 e0       	ldi	r31, 0x02	; 2
     730:	81 85       	ldd	r24, Z+9	; 0x09
     732:	92 85       	ldd	r25, Z+10	; 0x0a
     734:	a3 85       	ldd	r26, Z+11	; 0x0b
     736:	b4 85       	ldd	r27, Z+12	; 0x0c
     738:	01 96       	adiw	r24, 0x01	; 1
     73a:	a1 1d       	adc	r26, r1
     73c:	b1 1d       	adc	r27, r1
     73e:	81 87       	std	Z+9, r24	; 0x09
     740:	92 87       	std	Z+10, r25	; 0x0a
     742:	a3 87       	std	Z+11, r26	; 0x0b
     744:	b4 87       	std	Z+12, r27	; 0x0c
     746:	0d c0       	rjmp	.+26     	; 0x762 <__vector_1+0x54>
		
	}
	else
	{
		GenevaEncoder.angle--;
     748:	e1 e5       	ldi	r30, 0x51	; 81
     74a:	f2 e0       	ldi	r31, 0x02	; 2
     74c:	81 85       	ldd	r24, Z+9	; 0x09
     74e:	92 85       	ldd	r25, Z+10	; 0x0a
     750:	a3 85       	ldd	r26, Z+11	; 0x0b
     752:	b4 85       	ldd	r27, Z+12	; 0x0c
     754:	01 97       	sbiw	r24, 0x01	; 1
     756:	a1 09       	sbc	r26, r1
     758:	b1 09       	sbc	r27, r1
     75a:	81 87       	std	Z+9, r24	; 0x09
     75c:	92 87       	std	Z+10, r25	; 0x0a
     75e:	a3 87       	std	Z+11, r26	; 0x0b
     760:	b4 87       	std	Z+12, r27	; 0x0c
	}
	
}
     762:	ff 91       	pop	r31
     764:	ef 91       	pop	r30
     766:	bf 91       	pop	r27
     768:	af 91       	pop	r26
     76a:	9f 91       	pop	r25
     76c:	8f 91       	pop	r24
     76e:	0f 90       	pop	r0
     770:	0b be       	out	0x3b, r0	; 59
     772:	0f 90       	pop	r0
     774:	0f be       	out	0x3f, r0	; 63
     776:	0f 90       	pop	r0
     778:	1f 90       	pop	r1
     77a:	18 95       	reti

0000077c <__vector_42>:


ISR(TIMER4_COMPA_vect)
{
     77c:	1f 92       	push	r1
     77e:	0f 92       	push	r0
     780:	0f b6       	in	r0, 0x3f	; 63
     782:	0f 92       	push	r0
     784:	11 24       	eor	r1, r1
     786:	0b b6       	in	r0, 0x3b	; 59
     788:	0f 92       	push	r0
     78a:	4f 93       	push	r20
     78c:	5f 93       	push	r21
     78e:	6f 93       	push	r22
     790:	7f 93       	push	r23
     792:	8f 93       	push	r24
     794:	ef 93       	push	r30
     796:	ff 93       	push	r31
	pid_compute_flag = true;
     798:	81 e0       	ldi	r24, 0x01	; 1
     79a:	80 93 43 02 	sts	0x0243, r24	; 0x800243 <pid_compute_flag>
	inline void dcrCount(){pprcount--;};
	inline int Get_count(){return pprcount;};
	inline void Set_count(int val){pprcount = val;};
	inline void Calc_Speed(){speed = pprcount;pprcount = 0;}; //keep in timer compare match
     79e:	ee e5       	ldi	r30, 0x5E	; 94
     7a0:	f2 e0       	ldi	r31, 0x02	; 2
     7a2:	45 81       	ldd	r20, Z+5	; 0x05
     7a4:	56 81       	ldd	r21, Z+6	; 0x06
     7a6:	67 81       	ldd	r22, Z+7	; 0x07
     7a8:	70 85       	ldd	r23, Z+8	; 0x08
     7aa:	41 83       	std	Z+1, r20	; 0x01
     7ac:	52 83       	std	Z+2, r21	; 0x02
     7ae:	63 83       	std	Z+3, r22	; 0x03
     7b0:	74 83       	std	Z+4, r23	; 0x04
     7b2:	15 82       	std	Z+5, r1	; 0x05
     7b4:	16 82       	std	Z+6, r1	; 0x06
     7b6:	17 82       	std	Z+7, r1	; 0x07
     7b8:	10 86       	std	Z+8, r1	; 0x08
	RackEncoder.Calc_Speed();
	send_time = true;
     7ba:	80 93 44 02 	sts	0x0244, r24	; 0x800244 <send_time>
}
     7be:	ff 91       	pop	r31
     7c0:	ef 91       	pop	r30
     7c2:	8f 91       	pop	r24
     7c4:	7f 91       	pop	r23
     7c6:	6f 91       	pop	r22
     7c8:	5f 91       	pop	r21
     7ca:	4f 91       	pop	r20
     7cc:	0f 90       	pop	r0
     7ce:	0b be       	out	0x3b, r0	; 59
     7d0:	0f 90       	pop	r0
     7d2:	0f be       	out	0x3f, r0	; 63
     7d4:	0f 90       	pop	r0
     7d6:	1f 90       	pop	r1
     7d8:	18 95       	reti

000007da <_GLOBAL__sub_I_RackMotor>:
	
	public:
	
	long int angle;
	
	Rack_Encoder():speed(0),pprcount(0),angle(0){};
     7da:	ee e5       	ldi	r30, 0x5E	; 94
     7dc:	f2 e0       	ldi	r31, 0x02	; 2
     7de:	11 82       	std	Z+1, r1	; 0x01
     7e0:	12 82       	std	Z+2, r1	; 0x02
     7e2:	13 82       	std	Z+3, r1	; 0x03
     7e4:	14 82       	std	Z+4, r1	; 0x04
     7e6:	15 82       	std	Z+5, r1	; 0x05
     7e8:	16 82       	std	Z+6, r1	; 0x06
     7ea:	17 82       	std	Z+7, r1	; 0x07
     7ec:	10 86       	std	Z+8, r1	; 0x08
     7ee:	11 86       	std	Z+9, r1	; 0x09
     7f0:	12 86       	std	Z+10, r1	; 0x0a
     7f2:	13 86       	std	Z+11, r1	; 0x0b
     7f4:	14 86       	std	Z+12, r1	; 0x0c
     7f6:	e1 e5       	ldi	r30, 0x51	; 81
     7f8:	f2 e0       	ldi	r31, 0x02	; 2
     7fa:	11 82       	std	Z+1, r1	; 0x01
     7fc:	12 82       	std	Z+2, r1	; 0x02
     7fe:	13 82       	std	Z+3, r1	; 0x03
     800:	14 82       	std	Z+4, r1	; 0x04
     802:	15 82       	std	Z+5, r1	; 0x05
     804:	16 82       	std	Z+6, r1	; 0x06
     806:	17 82       	std	Z+7, r1	; 0x07
     808:	10 86       	std	Z+8, r1	; 0x08
     80a:	11 86       	std	Z+9, r1	; 0x09
     80c:	12 86       	std	Z+10, r1	; 0x0a
     80e:	13 86       	std	Z+11, r1	; 0x0b
     810:	14 86       	std	Z+12, r1	; 0x0c
		int sp; 
		int error , lastinput , errorsum;
		float cv;
		
	public:
		PID():kp(0),ki(0),kd(0),sp(0),error(0),lastinput(0),errorsum(0){};
     812:	eb e2       	ldi	r30, 0x2B	; 43
     814:	f2 e0       	ldi	r31, 0x02	; 2
     816:	10 82       	st	Z, r1
     818:	11 82       	std	Z+1, r1	; 0x01
     81a:	12 82       	std	Z+2, r1	; 0x02
     81c:	13 82       	std	Z+3, r1	; 0x03
     81e:	14 82       	std	Z+4, r1	; 0x04
     820:	15 82       	std	Z+5, r1	; 0x05
     822:	16 82       	std	Z+6, r1	; 0x06
     824:	17 82       	std	Z+7, r1	; 0x07
     826:	10 86       	std	Z+8, r1	; 0x08
     828:	11 86       	std	Z+9, r1	; 0x09
     82a:	12 86       	std	Z+10, r1	; 0x0a
     82c:	13 86       	std	Z+11, r1	; 0x0b
     82e:	15 86       	std	Z+13, r1	; 0x0d
     830:	14 86       	std	Z+12, r1	; 0x0c
     832:	17 86       	std	Z+15, r1	; 0x0f
     834:	16 86       	std	Z+14, r1	; 0x0e
     836:	11 8a       	std	Z+17, r1	; 0x11
     838:	10 8a       	std	Z+16, r1	; 0x10
     83a:	13 8a       	std	Z+19, r1	; 0x13
     83c:	12 8a       	std	Z+18, r1	; 0x12
     83e:	e3 e1       	ldi	r30, 0x13	; 19
     840:	f2 e0       	ldi	r31, 0x02	; 2
     842:	10 82       	st	Z, r1
     844:	11 82       	std	Z+1, r1	; 0x01
     846:	12 82       	std	Z+2, r1	; 0x02
     848:	13 82       	std	Z+3, r1	; 0x03
     84a:	14 82       	std	Z+4, r1	; 0x04
     84c:	15 82       	std	Z+5, r1	; 0x05
     84e:	16 82       	std	Z+6, r1	; 0x06
     850:	17 82       	std	Z+7, r1	; 0x07
     852:	10 86       	std	Z+8, r1	; 0x08
     854:	11 86       	std	Z+9, r1	; 0x09
     856:	12 86       	std	Z+10, r1	; 0x0a
     858:	13 86       	std	Z+11, r1	; 0x0b
     85a:	15 86       	std	Z+13, r1	; 0x0d
     85c:	14 86       	std	Z+12, r1	; 0x0c
     85e:	17 86       	std	Z+15, r1	; 0x0f
     860:	16 86       	std	Z+14, r1	; 0x0e
     862:	11 8a       	std	Z+17, r1	; 0x11
     864:	10 8a       	std	Z+16, r1	; 0x10
     866:	13 8a       	std	Z+19, r1	; 0x13
     868:	12 8a       	std	Z+18, r1	; 0x12
     86a:	08 95       	ret

0000086c <_ZN12Rack_Encoder11Init_TimersEv>:
}

void Rack_Encoder::Init_Timers()
{
	static bool was_initialized = false;
	if(!was_initialized)
     86c:	80 91 6d 02 	lds	r24, 0x026D	; 0x80026d <_ZZN12Rack_Encoder11Init_TimersEvE15was_initialized>
     870:	81 11       	cpse	r24, r1
     872:	17 c0       	rjmp	.+46     	; 0x8a2 <_ZN12Rack_Encoder11Init_TimersEv+0x36>
	{
		TCCR4B |= ((1<<WGM42)|(1<<CS40)|(1<<CS41)); //CTC mode and prescaler of 64
     874:	e1 ea       	ldi	r30, 0xA1	; 161
     876:	f0 e0       	ldi	r31, 0x00	; 0
     878:	80 81       	ld	r24, Z
     87a:	8b 60       	ori	r24, 0x0B	; 11
     87c:	80 83       	st	Z, r24
		TIMSK4 |= (1<<OCIE4A);
     87e:	e2 e7       	ldi	r30, 0x72	; 114
     880:	f0 e0       	ldi	r31, 0x00	; 0
     882:	80 81       	ld	r24, Z
     884:	82 60       	ori	r24, 0x02	; 2
     886:	80 83       	st	Z, r24
		OCR4A  = 250*DELAYTIMEMS;
     888:	88 e8       	ldi	r24, 0x88	; 136
     88a:	93 e1       	ldi	r25, 0x13	; 19
     88c:	90 93 a9 00 	sts	0x00A9, r25	; 0x8000a9 <__TEXT_REGION_LENGTH__+0x7000a9>
     890:	80 93 a8 00 	sts	0x00A8, r24	; 0x8000a8 <__TEXT_REGION_LENGTH__+0x7000a8>
		TCNT4 = 0;
     894:	10 92 a5 00 	sts	0x00A5, r1	; 0x8000a5 <__TEXT_REGION_LENGTH__+0x7000a5>
     898:	10 92 a4 00 	sts	0x00A4, r1	; 0x8000a4 <__TEXT_REGION_LENGTH__+0x7000a4>
		was_initialized = true;
     89c:	81 e0       	ldi	r24, 0x01	; 1
     89e:	80 93 6d 02 	sts	0x026D, r24	; 0x80026d <_ZZN12Rack_Encoder11Init_TimersEvE15was_initialized>
     8a2:	08 95       	ret

000008a4 <_ZN12Rack_Encoder15Init_InterruptsEv>:
	Init_Interrupts();
}

void Rack_Encoder::Init_Interrupts()
{
	sei();
     8a4:	78 94       	sei
	if (no==1)
     8a6:	fc 01       	movw	r30, r24
     8a8:	20 81       	ld	r18, Z
     8aa:	21 30       	cpi	r18, 0x01	; 1
     8ac:	49 f4       	brne	.+18     	; 0x8c0 <_ZN12Rack_Encoder15Init_InterruptsEv+0x1c>
	{
		EIMSK &= ~(1<<ENCODERR_INT);
     8ae:	e9 98       	cbi	0x1d, 1	; 29
		EICRA |= (1<<INTR_ISC1);	//falling edge
     8b0:	e9 e6       	ldi	r30, 0x69	; 105
     8b2:	f0 e0       	ldi	r31, 0x00	; 0
     8b4:	20 81       	ld	r18, Z
     8b6:	28 60       	ori	r18, 0x08	; 8
     8b8:	20 83       	st	Z, r18
		EIMSK |= (1<<ENCODERR_INT);		//setting INT pin
     8ba:	e9 9a       	sbi	0x1d, 1	; 29
		EIFR |= (1<<INTR_INTF);	    //clear int flag
     8bc:	e1 9a       	sbi	0x1c, 1	; 28
     8be:	0a c0       	rjmp	.+20     	; 0x8d4 <_ZN12Rack_Encoder15Init_InterruptsEv+0x30>
	}
	else if (no==2)
     8c0:	22 30       	cpi	r18, 0x02	; 2
     8c2:	41 f4       	brne	.+16     	; 0x8d4 <_ZN12Rack_Encoder15Init_InterruptsEv+0x30>
	{
		EIMSK &= ~(1<<ENCODERG_INT);
     8c4:	e8 98       	cbi	0x1d, 0	; 29
		EICRA |= (1<<INTG_ISC1);	//falling edge
     8c6:	e9 e6       	ldi	r30, 0x69	; 105
     8c8:	f0 e0       	ldi	r31, 0x00	; 0
     8ca:	20 81       	ld	r18, Z
     8cc:	22 60       	ori	r18, 0x02	; 2
     8ce:	20 83       	st	Z, r18
		EIMSK |= (1<<ENCODERG_INT);		//setting INT pin
     8d0:	e8 9a       	sbi	0x1d, 0	; 29
		EIFR |= (1<<INTG_INTF);	    //clear int flag
     8d2:	e0 9a       	sbi	0x1c, 0	; 28
	}
	Init_Timers();
     8d4:	cb cf       	rjmp	.-106    	; 0x86c <_ZN12Rack_Encoder11Init_TimersEv>
     8d6:	08 95       	ret

000008d8 <_ZN12Rack_Encoder10InitialiseEh>:

#include "Rack_Encoder.h"

void Rack_Encoder::Initialise(uint8_t x)
{
	no = x;
     8d8:	fc 01       	movw	r30, r24
     8da:	60 83       	st	Z, r22
	if(no==1)
     8dc:	61 30       	cpi	r22, 0x01	; 1
     8de:	29 f4       	brne	.+10     	; 0x8ea <_ZN12Rack_Encoder10InitialiseEh+0x12>
	{
		INPUT(ENCODERR_CHANNELA);
     8e0:	51 98       	cbi	0x0a, 1	; 10
		INPUT(ENCODERR_CHANNELB);
     8e2:	9d 98       	cbi	0x13, 5	; 19
		SET(ENCODERR_CHANNELA);
     8e4:	59 9a       	sbi	0x0b, 1	; 11
		SET(ENCODERR_CHANNELB);
     8e6:	a5 9a       	sbi	0x14, 5	; 20
     8e8:	06 c0       	rjmp	.+12     	; 0x8f6 <_ZN12Rack_Encoder10InitialiseEh+0x1e>
	}
	else if (no==2)
     8ea:	62 30       	cpi	r22, 0x02	; 2
     8ec:	21 f4       	brne	.+8      	; 0x8f6 <_ZN12Rack_Encoder10InitialiseEh+0x1e>
	{
		INPUT(ENCODERG_CHANNELA);
     8ee:	50 98       	cbi	0x0a, 0	; 10
		INPUT(ENCODERG_CHANNELB);
     8f0:	6b 98       	cbi	0x0d, 3	; 13
		SET(ENCODERG_CHANNELA);
     8f2:	58 9a       	sbi	0x0b, 0	; 11
		SET(ENCODERG_CHANNELB);
     8f4:	73 9a       	sbi	0x0e, 3	; 14
	}
	Init_Interrupts();
     8f6:	d6 cf       	rjmp	.-84     	; 0x8a4 <_ZN12Rack_Encoder15Init_InterruptsEv>
     8f8:	08 95       	ret

000008fa <_ZN10Rack_Motor7InitPWMEv>:

}

void Rack_Motor::InitPWM()
{
	if (num==1)
     8fa:	fc 01       	movw	r30, r24
     8fc:	80 81       	ld	r24, Z
     8fe:	81 30       	cpi	r24, 0x01	; 1
     900:	c1 f4       	brne	.+48     	; 0x932 <_ZN10Rack_Motor7InitPWMEv+0x38>
	{
		OUTPUT(DD_F5);
     902:	0b 9a       	sbi	0x01, 3	; 1
		OUTPUT(DD_B5);
     904:	09 9a       	sbi	0x01, 1	; 1

		OUTPUT(DD_PWM5);
     906:	ea e0       	ldi	r30, 0x0A	; 10
     908:	f1 e0       	ldi	r31, 0x01	; 1
     90a:	80 81       	ld	r24, Z
     90c:	80 62       	ori	r24, 0x20	; 32
     90e:	80 83       	st	Z, r24

		PWM_TCCRA5	|=  ( 1 << PWM_5COM1 ) | ( 1 << PWM_5WGM1 );														//
     910:	e0 e2       	ldi	r30, 0x20	; 32
     912:	f1 e0       	ldi	r31, 0x01	; 1
     914:	80 81       	ld	r24, Z
     916:	8a 60       	ori	r24, 0x0A	; 10
     918:	80 83       	st	Z, r24
		PWM_TCCRB5	|=  ( 1 << PWM_5WGM2 ) | ( 1 << PWM_5WGM3 ) | ( 1 << PWM_5CS1);									//PRESCALAR 8
     91a:	e1 e2       	ldi	r30, 0x21	; 33
     91c:	f1 e0       	ldi	r31, 0x01	; 1
     91e:	80 81       	ld	r24, Z
     920:	8a 61       	ori	r24, 0x1A	; 26
     922:	80 83       	st	Z, r24
		PWM_ICR5		 =        RACK_ICR_TOP;
     924:	89 ef       	ldi	r24, 0xF9	; 249
     926:	90 e0       	ldi	r25, 0x00	; 0
     928:	90 93 27 01 	sts	0x0127, r25	; 0x800127 <__TEXT_REGION_LENGTH__+0x700127>
     92c:	80 93 26 01 	sts	0x0126, r24	; 0x800126 <__TEXT_REGION_LENGTH__+0x700126>
     930:	08 95       	ret
	}
	else if(num==2)
     932:	82 30       	cpi	r24, 0x02	; 2
     934:	b9 f4       	brne	.+46     	; 0x964 <_ZN10Rack_Motor7InitPWMEv+0x6a>
	{
		OUTPUT(DD_F6);
     936:	0f 9a       	sbi	0x01, 7	; 1
		OUTPUT(DD_B6);
     938:	0d 9a       	sbi	0x01, 5	; 1

		OUTPUT(DD_PWM6);
     93a:	ea e0       	ldi	r30, 0x0A	; 10
     93c:	f1 e0       	ldi	r31, 0x01	; 1
     93e:	80 81       	ld	r24, Z
     940:	80 61       	ori	r24, 0x10	; 16
     942:	80 83       	st	Z, r24

		PWM_TCCRA6	|=  ( 1 << PWM_6COM1 ) | ( 1 << PWM_6WGM1 );														//
     944:	e0 e2       	ldi	r30, 0x20	; 32
     946:	f1 e0       	ldi	r31, 0x01	; 1
     948:	80 81       	ld	r24, Z
     94a:	82 62       	ori	r24, 0x22	; 34
     94c:	80 83       	st	Z, r24
		PWM_TCCRB6	|=  ( 1 << PWM_6WGM2 ) | ( 1 << PWM_6WGM3 ) | ( 1 << PWM_6CS1);									//PRESCALAR 8
     94e:	e1 e2       	ldi	r30, 0x21	; 33
     950:	f1 e0       	ldi	r31, 0x01	; 1
     952:	80 81       	ld	r24, Z
     954:	8a 61       	ori	r24, 0x1A	; 26
     956:	80 83       	st	Z, r24
		PWM_ICR6		 =         RACK_ICR_TOP;
     958:	89 ef       	ldi	r24, 0xF9	; 249
     95a:	90 e0       	ldi	r25, 0x00	; 0
     95c:	90 93 27 01 	sts	0x0127, r25	; 0x800127 <__TEXT_REGION_LENGTH__+0x700127>
     960:	80 93 26 01 	sts	0x0126, r24	; 0x800126 <__TEXT_REGION_LENGTH__+0x700126>
     964:	08 95       	ret

00000966 <_ZN10Rack_Motor19SetForwardDirectionEv>:
	
}

void Rack_Motor::SetForwardDirection()
{
	switch(num)
     966:	fc 01       	movw	r30, r24
     968:	80 81       	ld	r24, Z
     96a:	81 30       	cpi	r24, 0x01	; 1
     96c:	19 f0       	breq	.+6      	; 0x974 <_ZN10Rack_Motor19SetForwardDirectionEv+0xe>
     96e:	82 30       	cpi	r24, 0x02	; 2
     970:	21 f0       	breq	.+8      	; 0x97a <_ZN10Rack_Motor19SetForwardDirectionEv+0x14>
     972:	08 95       	ret
	{
		case 1:
		SET		(DD_F5);
     974:	13 9a       	sbi	0x02, 3	; 2
		CLEAR	(DD_B5);
     976:	11 98       	cbi	0x02, 1	; 2
		break;
     978:	08 95       	ret
		case 2:
		SET		(DD_F6);
     97a:	17 9a       	sbi	0x02, 7	; 2
		CLEAR	(DD_B6);
     97c:	15 98       	cbi	0x02, 5	; 2
     97e:	08 95       	ret

00000980 <_ZN10Rack_Motor19SetReverseDirectionEv>:
	

}
void Rack_Motor::SetReverseDirection()
{
	switch(num)
     980:	fc 01       	movw	r30, r24
     982:	80 81       	ld	r24, Z
     984:	81 30       	cpi	r24, 0x01	; 1
     986:	19 f0       	breq	.+6      	; 0x98e <_ZN10Rack_Motor19SetReverseDirectionEv+0xe>
     988:	82 30       	cpi	r24, 0x02	; 2
     98a:	21 f0       	breq	.+8      	; 0x994 <_ZN10Rack_Motor19SetReverseDirectionEv+0x14>
     98c:	08 95       	ret
	{
		case 1:
		CLEAR	(DD_F5);
     98e:	13 98       	cbi	0x02, 3	; 2
		SET		(DD_B5);
     990:	11 9a       	sbi	0x02, 1	; 2
		break;
     992:	08 95       	ret
		case 2:
		CLEAR	(DD_F6);
     994:	17 98       	cbi	0x02, 7	; 2
		SET		(DD_B6);
     996:	15 9a       	sbi	0x02, 5	; 2
     998:	08 95       	ret

0000099a <_ZN10Rack_Motor9StopMotorEv>:

}

void Rack_Motor::StopMotor()
{
	switch(num)
     99a:	fc 01       	movw	r30, r24
     99c:	80 81       	ld	r24, Z
     99e:	81 30       	cpi	r24, 0x01	; 1
     9a0:	19 f0       	breq	.+6      	; 0x9a8 <_ZN10Rack_Motor9StopMotorEv+0xe>
     9a2:	82 30       	cpi	r24, 0x02	; 2
     9a4:	41 f0       	breq	.+16     	; 0x9b6 <_ZN10Rack_Motor9StopMotorEv+0x1c>
     9a6:	08 95       	ret
	{
		case 1:
		CLEAR	(DD_F5);
     9a8:	13 98       	cbi	0x02, 3	; 2
		CLEAR	(DD_B5);
     9aa:	11 98       	cbi	0x02, 1	; 2

		PWM_OCR5 = 0;
     9ac:	10 92 2d 01 	sts	0x012D, r1	; 0x80012d <__TEXT_REGION_LENGTH__+0x70012d>
     9b0:	10 92 2c 01 	sts	0x012C, r1	; 0x80012c <__TEXT_REGION_LENGTH__+0x70012c>
		break;
     9b4:	08 95       	ret
		case 2:
		CLEAR	(DD_F6);
     9b6:	17 98       	cbi	0x02, 7	; 2
		CLEAR	(DD_B6);
     9b8:	15 98       	cbi	0x02, 5	; 2

		PWM_OCR6 = 0;
     9ba:	10 92 2b 01 	sts	0x012B, r1	; 0x80012b <__TEXT_REGION_LENGTH__+0x70012b>
     9be:	10 92 2a 01 	sts	0x012A, r1	; 0x80012a <__TEXT_REGION_LENGTH__+0x70012a>
     9c2:	08 95       	ret

000009c4 <_ZN10Rack_Motor11SetOcrValueEi>:
	}
}


void Rack_Motor::SetOcrValue(int Ocr)
{
     9c4:	0f 93       	push	r16
     9c6:	1f 93       	push	r17
     9c8:	cf 93       	push	r28
     9ca:	df 93       	push	r29
     9cc:	8c 01       	movw	r16, r24
     9ce:	eb 01       	movw	r28, r22
  if (Ocr > 0)
     9d0:	1c 16       	cp	r1, r28
     9d2:	1d 06       	cpc	r1, r29
     9d4:	0c f4       	brge	.+2      	; 0x9d8 <_ZN10Rack_Motor11SetOcrValueEi+0x14>
	SetForwardDirection();
     9d6:	c7 df       	rcall	.-114    	; 0x966 <_ZN10Rack_Motor19SetForwardDirectionEv>
  if( Ocr < 0)
     9d8:	dd 23       	and	r29, r29
     9da:	2c f4       	brge	.+10     	; 0x9e6 <_ZN10Rack_Motor11SetOcrValueEi+0x22>
  {
	  Ocr = -Ocr;
     9dc:	d1 95       	neg	r29
     9de:	c1 95       	neg	r28
     9e0:	d1 09       	sbc	r29, r1
	  SetReverseDirection();
     9e2:	c8 01       	movw	r24, r16
     9e4:	cd df       	rcall	.-102    	; 0x980 <_ZN10Rack_Motor19SetReverseDirectionEv>
     9e6:	ca 3f       	cpi	r28, 0xFA	; 250
     9e8:	d1 05       	cpc	r29, r1
     9ea:	14 f0       	brlt	.+4      	; 0x9f0 <_ZN10Rack_Motor11SetOcrValueEi+0x2c>
     9ec:	c9 ef       	ldi	r28, 0xF9	; 249
     9ee:	d0 e0       	ldi	r29, 0x00	; 0
  }
  if( Ocr > RACK_MAX_VALUE)
	Ocr = RACK_MAX_VALUE;
	switch(num)
     9f0:	f8 01       	movw	r30, r16
     9f2:	80 81       	ld	r24, Z
     9f4:	81 30       	cpi	r24, 0x01	; 1
     9f6:	19 f0       	breq	.+6      	; 0x9fe <_ZN10Rack_Motor11SetOcrValueEi+0x3a>
     9f8:	82 30       	cpi	r24, 0x02	; 2
     9fa:	31 f0       	breq	.+12     	; 0xa08 <_ZN10Rack_Motor11SetOcrValueEi+0x44>
     9fc:	09 c0       	rjmp	.+18     	; 0xa10 <_ZN10Rack_Motor11SetOcrValueEi+0x4c>
	{
		case 1:
		PWM_OCR5	= Ocr;
     9fe:	d0 93 2d 01 	sts	0x012D, r29	; 0x80012d <__TEXT_REGION_LENGTH__+0x70012d>
     a02:	c0 93 2c 01 	sts	0x012C, r28	; 0x80012c <__TEXT_REGION_LENGTH__+0x70012c>
		break;
     a06:	04 c0       	rjmp	.+8      	; 0xa10 <_ZN10Rack_Motor11SetOcrValueEi+0x4c>
		case 2:
		PWM_OCR6	= Ocr;
     a08:	d0 93 2b 01 	sts	0x012B, r29	; 0x80012b <__TEXT_REGION_LENGTH__+0x70012b>
     a0c:	c0 93 2a 01 	sts	0x012A, r28	; 0x80012a <__TEXT_REGION_LENGTH__+0x70012a>
		break;
	}
     a10:	df 91       	pop	r29
     a12:	cf 91       	pop	r28
     a14:	1f 91       	pop	r17
     a16:	0f 91       	pop	r16
     a18:	08 95       	ret

00000a1a <_ZN10Rack_Motor10InitialiseEh>:


#include "Rack_Motor.h"

void Rack_Motor::Initialise(uint8_t no)
{
     a1a:	cf 93       	push	r28
     a1c:	df 93       	push	r29
     a1e:	ec 01       	movw	r28, r24
	num = no;
     a20:	68 83       	st	Y, r22
	InitPWM();
     a22:	6b df       	rcall	.-298    	; 0x8fa <_ZN10Rack_Motor7InitPWMEv>

	StopMotor();
     a24:	ce 01       	movw	r24, r28
     a26:	b9 df       	rcall	.-142    	; 0x99a <_ZN10Rack_Motor9StopMotorEv>
	SetOcrValue(0);
     a28:	60 e0       	ldi	r22, 0x00	; 0
     a2a:	70 e0       	ldi	r23, 0x00	; 0
     a2c:	ce 01       	movw	r24, r28
     a2e:	ca df       	rcall	.-108    	; 0x9c4 <_ZN10Rack_Motor11SetOcrValueEi>

}
     a30:	df 91       	pop	r29
     a32:	cf 91       	pop	r28
     a34:	08 95       	ret

00000a36 <_Z17operation_of_rackv>:
}

void disable_linetracker_interrupt()
{
	EIMSK &= ~(1<<JUNCTION_INT);
	EIFR |= (1<<JUNCTION_INTF);
     a36:	0f 93       	push	r16
     a38:	1f 93       	push	r17
     a3a:	80 91 67 02 	lds	r24, 0x0267	; 0x800267 <RackEncoder+0x9>
     a3e:	90 91 68 02 	lds	r25, 0x0268	; 0x800268 <RackEncoder+0xa>
     a42:	a0 91 69 02 	lds	r26, 0x0269	; 0x800269 <RackEncoder+0xb>
     a46:	b0 91 6a 02 	lds	r27, 0x026A	; 0x80026a <RackEncoder+0xc>
     a4a:	87 3a       	cpi	r24, 0xA7	; 167
     a4c:	2f ef       	ldi	r18, 0xFF	; 255
     a4e:	92 07       	cpc	r25, r18
     a50:	a2 07       	cpc	r26, r18
     a52:	b2 07       	cpc	r27, r18
     a54:	5c f4       	brge	.+22     	; 0xa6c <_Z17operation_of_rackv+0x36>
     a56:	20 91 09 02 	lds	r18, 0x0209	; 0x800209 <Rack_home_position>
     a5a:	22 23       	and	r18, r18
     a5c:	09 f4       	brne	.+2      	; 0xa60 <_Z17operation_of_rackv+0x2a>
     a5e:	06 c1       	rjmp	.+524    	; 0xc6c <_Z17operation_of_rackv+0x236>
     a60:	10 92 09 02 	sts	0x0209, r1	; 0x800209 <Rack_home_position>
     a64:	81 e0       	ldi	r24, 0x01	; 1
     a66:	80 93 06 02 	sts	0x0206, r24	; 0x800206 <stop_rack_final>
     a6a:	0e c0       	rjmp	.+28     	; 0xa88 <_Z17operation_of_rackv+0x52>
     a6c:	86 3a       	cpi	r24, 0xA6	; 166
     a6e:	9f 4f       	sbci	r25, 0xFF	; 255
     a70:	af 4f       	sbci	r26, 0xFF	; 255
     a72:	bf 4f       	sbci	r27, 0xFF	; 255
     a74:	4c f0       	brlt	.+18     	; 0xa88 <_Z17operation_of_rackv+0x52>
     a76:	80 91 09 02 	lds	r24, 0x0209	; 0x800209 <Rack_home_position>
     a7a:	81 11       	cpse	r24, r1
     a7c:	05 c0       	rjmp	.+10     	; 0xa88 <_Z17operation_of_rackv+0x52>
     a7e:	81 e0       	ldi	r24, 0x01	; 1
     a80:	80 93 09 02 	sts	0x0209, r24	; 0x800209 <Rack_home_position>
     a84:	80 93 07 02 	sts	0x0207, r24	; 0x800207 <stop_rack_initial>
     a88:	80 91 0a 02 	lds	r24, 0x020A	; 0x80020a <Geneva_Start>
     a8c:	88 23       	and	r24, r24
     a8e:	09 f4       	brne	.+2      	; 0xa92 <_Z17operation_of_rackv+0x5c>
     a90:	62 c0       	rjmp	.+196    	; 0xb56 <_Z17operation_of_rackv+0x120>
     a92:	80 91 5a 02 	lds	r24, 0x025A	; 0x80025a <GenevaEncoder+0x9>
     a96:	90 91 5b 02 	lds	r25, 0x025B	; 0x80025b <GenevaEncoder+0xa>
     a9a:	a0 91 5c 02 	lds	r26, 0x025C	; 0x80025c <GenevaEncoder+0xb>
     a9e:	b0 91 5d 02 	lds	r27, 0x025D	; 0x80025d <GenevaEncoder+0xc>
     aa2:	88 36       	cpi	r24, 0x68	; 104
     aa4:	91 40       	sbci	r25, 0x01	; 1
     aa6:	a1 05       	cpc	r26, r1
     aa8:	b1 05       	cpc	r27, r1
     aaa:	54 f1       	brlt	.+84     	; 0xb00 <_Z17operation_of_rackv+0xca>
     aac:	60 91 39 02 	lds	r22, 0x0239	; 0x800239 <angle_pid+0xe>
     ab0:	70 91 3a 02 	lds	r23, 0x023A	; 0x80023a <angle_pid+0xf>
     ab4:	77 23       	and	r23, r23
     ab6:	1c f4       	brge	.+6      	; 0xabe <_Z17operation_of_rackv+0x88>
     ab8:	71 95       	neg	r23
     aba:	61 95       	neg	r22
     abc:	71 09       	sbc	r23, r1
     abe:	07 2e       	mov	r0, r23
     ac0:	00 0c       	add	r0, r0
     ac2:	88 0b       	sbc	r24, r24
     ac4:	99 0b       	sbc	r25, r25
     ac6:	c7 d6       	rcall	.+3470   	; 0x1856 <__floatsisf>
     ac8:	20 e0       	ldi	r18, 0x00	; 0
     aca:	30 e0       	ldi	r19, 0x00	; 0
     acc:	40 e4       	ldi	r20, 0x40	; 64
     ace:	50 e4       	ldi	r21, 0x40	; 64
     ad0:	23 d6       	rcall	.+3142   	; 0x1718 <__cmpsf2>
     ad2:	18 16       	cp	r1, r24
     ad4:	ac f0       	brlt	.+42     	; 0xb00 <_Z17operation_of_rackv+0xca>
     ad6:	10 92 5a 02 	sts	0x025A, r1	; 0x80025a <GenevaEncoder+0x9>
     ada:	10 92 5b 02 	sts	0x025B, r1	; 0x80025b <GenevaEncoder+0xa>
     ade:	10 92 5c 02 	sts	0x025C, r1	; 0x80025c <GenevaEncoder+0xb>
     ae2:	10 92 5d 02 	sts	0x025D, r1	; 0x80025d <GenevaEncoder+0xc>
     ae6:	eb e2       	ldi	r30, 0x2B	; 43
     ae8:	f2 e0       	ldi	r31, 0x02	; 2
     aea:	15 86       	std	Z+13, r1	; 0x0d
     aec:	14 86       	std	Z+12, r1	; 0x0c
     aee:	13 8a       	std	Z+19, r1	; 0x13
     af0:	12 8a       	std	Z+18, r1	; 0x12
     af2:	14 8a       	std	Z+20, r1	; 0x14
     af4:	15 8a       	std	Z+21, r1	; 0x15
     af6:	16 8a       	std	Z+22, r1	; 0x16
     af8:	17 8a       	std	Z+23, r1	; 0x17
     afa:	10 92 0a 02 	sts	0x020A, r1	; 0x80020a <Geneva_Start>
     afe:	2b c0       	rjmp	.+86     	; 0xb56 <_Z17operation_of_rackv+0x120>
     b00:	80 91 04 02 	lds	r24, 0x0204	; 0x800204 <rack_throw_auto>
     b04:	88 23       	and	r24, r24
     b06:	91 f0       	breq	.+36     	; 0xb2c <_Z17operation_of_rackv+0xf6>
     b08:	80 91 5a 02 	lds	r24, 0x025A	; 0x80025a <GenevaEncoder+0x9>
     b0c:	90 91 5b 02 	lds	r25, 0x025B	; 0x80025b <GenevaEncoder+0xa>
     b10:	a0 91 5c 02 	lds	r26, 0x025C	; 0x80025c <GenevaEncoder+0xb>
     b14:	b0 91 5d 02 	lds	r27, 0x025D	; 0x80025d <GenevaEncoder+0xc>
     b18:	88 3c       	cpi	r24, 0xC8	; 200
     b1a:	91 05       	cpc	r25, r1
     b1c:	a1 05       	cpc	r26, r1
     b1e:	b1 05       	cpc	r27, r1
     b20:	2c f0       	brlt	.+10     	; 0xb2c <_Z17operation_of_rackv+0xf6>
     b22:	47 98       	cbi	0x08, 7	; 8
     b24:	12 98       	cbi	0x02, 2	; 2
     b26:	81 e0       	ldi	r24, 0x01	; 1
     b28:	80 93 01 02 	sts	0x0201, r24	; 0x800201 <inside_robot>
     b2c:	80 91 5a 02 	lds	r24, 0x025A	; 0x80025a <GenevaEncoder+0x9>
     b30:	90 91 5b 02 	lds	r25, 0x025B	; 0x80025b <GenevaEncoder+0xa>
     b34:	a0 91 5c 02 	lds	r26, 0x025C	; 0x80025c <GenevaEncoder+0xb>
     b38:	b0 91 5d 02 	lds	r27, 0x025D	; 0x80025d <GenevaEncoder+0xc>
     b3c:	88 37       	cpi	r24, 0x78	; 120
     b3e:	91 05       	cpc	r25, r1
     b40:	a1 05       	cpc	r26, r1
     b42:	b1 05       	cpc	r27, r1
     b44:	44 f0       	brlt	.+16     	; 0xb56 <_Z17operation_of_rackv+0x120>
     b46:	10 92 02 02 	sts	0x0202, r1	; 0x800202 <pneumatic_geneva_start>
     b4a:	80 91 43 02 	lds	r24, 0x0243	; 0x800243 <pid_compute_flag>
     b4e:	88 23       	and	r24, r24
     b50:	09 f4       	brne	.+2      	; 0xb54 <_Z17operation_of_rackv+0x11e>
     b52:	3e c0       	rjmp	.+124    	; 0xbd0 <_Z17operation_of_rackv+0x19a>
     b54:	04 c0       	rjmp	.+8      	; 0xb5e <_Z17operation_of_rackv+0x128>
     b56:	80 91 43 02 	lds	r24, 0x0243	; 0x800243 <pid_compute_flag>
     b5a:	88 23       	and	r24, r24
     b5c:	c1 f0       	breq	.+48     	; 0xb8e <_Z17operation_of_rackv+0x158>
     b5e:	60 91 5a 02 	lds	r22, 0x025A	; 0x80025a <GenevaEncoder+0x9>
     b62:	70 91 5b 02 	lds	r23, 0x025B	; 0x80025b <GenevaEncoder+0xa>
     b66:	8b e2       	ldi	r24, 0x2B	; 43
     b68:	92 e0       	ldi	r25, 0x02	; 2
     b6a:	8f db       	rcall	.-2274   	; 0x28a <_ZN3PID13angle_ComputeEi>
     b6c:	41 d6       	rcall	.+3202   	; 0x17f0 <__fixsfsi>
     b6e:	8b e6       	ldi	r24, 0x6B	; 107
     b70:	92 e0       	ldi	r25, 0x02	; 2
     b72:	28 df       	rcall	.-432    	; 0x9c4 <_ZN10Rack_Motor11SetOcrValueEi>
     b74:	60 91 5f 02 	lds	r22, 0x025F	; 0x80025f <RackEncoder+0x1>
     b78:	70 91 60 02 	lds	r23, 0x0260	; 0x800260 <RackEncoder+0x2>
     b7c:	83 e1       	ldi	r24, 0x13	; 19
     b7e:	92 e0       	ldi	r25, 0x02	; 2
     b80:	08 db       	rcall	.-2544   	; 0x192 <_ZN3PID7ComputeEi>
     b82:	36 d6       	rcall	.+3180   	; 0x17f0 <__fixsfsi>
     b84:	8c e6       	ldi	r24, 0x6C	; 108
     b86:	92 e0       	ldi	r25, 0x02	; 2
     b88:	1d df       	rcall	.-454    	; 0x9c4 <_ZN10Rack_Motor11SetOcrValueEi>
     b8a:	10 92 43 02 	sts	0x0243, r1	; 0x800243 <pid_compute_flag>
     b8e:	80 91 02 02 	lds	r24, 0x0202	; 0x800202 <pneumatic_geneva_start>
     b92:	88 23       	and	r24, r24
     b94:	e9 f0       	breq	.+58     	; 0xbd0 <_Z17operation_of_rackv+0x19a>
     b96:	23 dc       	rcall	.-1978   	; 0x3de <_Z6millisv>
     b98:	00 91 49 02 	lds	r16, 0x0249	; 0x800249 <pneumatic_geneva_time>
     b9c:	10 91 4a 02 	lds	r17, 0x024A	; 0x80024a <pneumatic_geneva_time+0x1>
     ba0:	20 91 4b 02 	lds	r18, 0x024B	; 0x80024b <pneumatic_geneva_time+0x2>
     ba4:	30 91 4c 02 	lds	r19, 0x024C	; 0x80024c <pneumatic_geneva_time+0x3>
     ba8:	dc 01       	movw	r26, r24
     baa:	cb 01       	movw	r24, r22
     bac:	80 1b       	sub	r24, r16
     bae:	91 0b       	sbc	r25, r17
     bb0:	a2 0b       	sbc	r26, r18
     bb2:	b3 0b       	sbc	r27, r19
     bb4:	8d 3b       	cpi	r24, 0xBD	; 189
     bb6:	92 40       	sbci	r25, 0x02	; 2
     bb8:	a1 05       	cpc	r26, r1
     bba:	b1 05       	cpc	r27, r1
     bbc:	48 f0       	brcs	.+18     	; 0xbd0 <_Z17operation_of_rackv+0x19a>
     bbe:	88 e6       	ldi	r24, 0x68	; 104
     bc0:	91 e0       	ldi	r25, 0x01	; 1
     bc2:	90 93 38 02 	sts	0x0238, r25	; 0x800238 <angle_pid+0xd>
     bc6:	80 93 37 02 	sts	0x0237, r24	; 0x800237 <angle_pid+0xc>
     bca:	81 e0       	ldi	r24, 0x01	; 1
     bcc:	80 93 0a 02 	sts	0x020A, r24	; 0x80020a <Geneva_Start>
     bd0:	80 91 00 02 	lds	r24, 0x0200	; 0x800200 <_edata>
     bd4:	88 23       	and	r24, r24
     bd6:	c9 f0       	breq	.+50     	; 0xc0a <_Z17operation_of_rackv+0x1d4>
     bd8:	02 dc       	rcall	.-2044   	; 0x3de <_Z6millisv>
     bda:	00 91 45 02 	lds	r16, 0x0245	; 0x800245 <passing_time>
     bde:	10 91 46 02 	lds	r17, 0x0246	; 0x800246 <passing_time+0x1>
     be2:	20 91 47 02 	lds	r18, 0x0247	; 0x800247 <passing_time+0x2>
     be6:	30 91 48 02 	lds	r19, 0x0248	; 0x800248 <passing_time+0x3>
     bea:	dc 01       	movw	r26, r24
     bec:	cb 01       	movw	r24, r22
     bee:	80 1b       	sub	r24, r16
     bf0:	91 0b       	sbc	r25, r17
     bf2:	a2 0b       	sbc	r26, r18
     bf4:	b3 0b       	sbc	r27, r19
     bf6:	8d 32       	cpi	r24, 0x2D	; 45
     bf8:	91 40       	sbci	r25, 0x01	; 1
     bfa:	a1 05       	cpc	r26, r1
     bfc:	b1 05       	cpc	r27, r1
     bfe:	28 f0       	brcs	.+10     	; 0xc0a <_Z17operation_of_rackv+0x1d4>
     c00:	88 b1       	in	r24, 0x08	; 8
     c02:	80 58       	subi	r24, 0x80	; 128
     c04:	88 b9       	out	0x08, r24	; 8
     c06:	10 92 00 02 	sts	0x0200, r1	; 0x800200 <_edata>
     c0a:	80 91 05 02 	lds	r24, 0x0205	; 0x800205 <throw_rack>
     c0e:	88 23       	and	r24, r24
     c10:	a1 f1       	breq	.+104    	; 0xc7a <_Z17operation_of_rackv+0x244>
     c12:	e5 db       	rcall	.-2102   	; 0x3de <_Z6millisv>
     c14:	00 91 4d 02 	lds	r16, 0x024D	; 0x80024d <previous_time>
     c18:	10 91 4e 02 	lds	r17, 0x024E	; 0x80024e <previous_time+0x1>
     c1c:	20 91 4f 02 	lds	r18, 0x024F	; 0x80024f <previous_time+0x2>
     c20:	30 91 50 02 	lds	r19, 0x0250	; 0x800250 <previous_time+0x3>
     c24:	dc 01       	movw	r26, r24
     c26:	cb 01       	movw	r24, r22
     c28:	80 1b       	sub	r24, r16
     c2a:	91 0b       	sbc	r25, r17
     c2c:	a2 0b       	sbc	r26, r18
     c2e:	b3 0b       	sbc	r27, r19
     c30:	8c 32       	cpi	r24, 0x2C	; 44
     c32:	91 40       	sbci	r25, 0x01	; 1
     c34:	a1 05       	cpc	r26, r1
     c36:	b1 05       	cpc	r27, r1
     c38:	00 f1       	brcs	.+64     	; 0xc7a <_Z17operation_of_rackv+0x244>
     c3a:	10 98       	cbi	0x02, 0	; 2
     c3c:	10 92 05 02 	sts	0x0205, r1	; 0x800205 <throw_rack>
     c40:	80 91 04 02 	lds	r24, 0x0204	; 0x800204 <rack_throw_auto>
     c44:	88 23       	and	r24, r24
     c46:	c9 f0       	breq	.+50     	; 0xc7a <_Z17operation_of_rackv+0x244>
     c48:	8d ef       	ldi	r24, 0xFD	; 253
     c4a:	9f ef       	ldi	r25, 0xFF	; 255
     c4c:	90 93 20 02 	sts	0x0220, r25	; 0x800220 <rack_motor_pid+0xd>
     c50:	80 93 1f 02 	sts	0x021F, r24	; 0x80021f <rack_motor_pid+0xc>
     c54:	81 e0       	ldi	r24, 0x01	; 1
     c56:	80 93 08 02 	sts	0x0208, r24	; 0x800208 <auto_move_rack>
     c5a:	28 e6       	ldi	r18, 0x68	; 104
     c5c:	31 e0       	ldi	r19, 0x01	; 1
     c5e:	30 93 38 02 	sts	0x0238, r19	; 0x800238 <angle_pid+0xd>
     c62:	20 93 37 02 	sts	0x0237, r18	; 0x800237 <angle_pid+0xc>
     c66:	80 93 0a 02 	sts	0x020A, r24	; 0x80020a <Geneva_Start>
     c6a:	07 c0       	rjmp	.+14     	; 0xc7a <_Z17operation_of_rackv+0x244>
     c6c:	86 3a       	cpi	r24, 0xA6	; 166
     c6e:	9f 4f       	sbci	r25, 0xFF	; 255
     c70:	af 4f       	sbci	r26, 0xFF	; 255
     c72:	bf 4f       	sbci	r27, 0xFF	; 255
     c74:	0c f0       	brlt	.+2      	; 0xc78 <_Z17operation_of_rackv+0x242>
     c76:	03 cf       	rjmp	.-506    	; 0xa7e <_Z17operation_of_rackv+0x48>
     c78:	07 cf       	rjmp	.-498    	; 0xa88 <_Z17operation_of_rackv+0x52>
     c7a:	1f 91       	pop	r17
     c7c:	0f 91       	pop	r16
     c7e:	08 95       	ret

00000c80 <_Z18init_timer_rampingv>:
     c80:	10 92 7a 02 	sts	0x027A, r1	; 0x80027a <rampupflag_start>
     c84:	10 92 7b 02 	sts	0x027B, r1	; 0x80027b <timer_count>
     c88:	84 b5       	in	r24, 0x24	; 36
     c8a:	82 60       	ori	r24, 0x02	; 2
     c8c:	84 bd       	out	0x24, r24	; 36
     c8e:	85 b5       	in	r24, 0x25	; 37
     c90:	85 60       	ori	r24, 0x05	; 5
     c92:	85 bd       	out	0x25, r24	; 37
     c94:	ee e6       	ldi	r30, 0x6E	; 110
     c96:	f0 e0       	ldi	r31, 0x00	; 0
     c98:	80 81       	ld	r24, Z
     c9a:	82 60       	ori	r24, 0x02	; 2
     c9c:	80 83       	st	Z, r24
     c9e:	16 bc       	out	0x26, r1	; 38
     ca0:	8b e9       	ldi	r24, 0x9B	; 155
     ca2:	87 bd       	out	0x27, r24	; 39
     ca4:	08 95       	ret

00000ca6 <_Z14init_LedStripsv>:
     ca6:	98 9a       	sbi	0x13, 0	; 19
     ca8:	3e 9a       	sbi	0x07, 6	; 7
     caa:	3c 9a       	sbi	0x07, 4	; 7
     cac:	9a 9a       	sbi	0x13, 2	; 19
     cae:	38 9a       	sbi	0x07, 0	; 7
     cb0:	3a 9a       	sbi	0x07, 2	; 7
     cb2:	99 9a       	sbi	0x13, 1	; 19
     cb4:	a0 98       	cbi	0x14, 0	; 20
     cb6:	46 98       	cbi	0x08, 6	; 8
     cb8:	44 98       	cbi	0x08, 4	; 8
     cba:	a2 98       	cbi	0x14, 2	; 20
     cbc:	40 98       	cbi	0x08, 0	; 8
     cbe:	42 98       	cbi	0x08, 2	; 8
     cc0:	a1 98       	cbi	0x14, 1	; 20
     cc2:	08 95       	ret

00000cc4 <_Z11init_masterv>:
     cc4:	e2 e8       	ldi	r30, 0x82	; 130
     cc6:	f2 e0       	ldi	r31, 0x02	; 2
     cc8:	82 e3       	ldi	r24, 0x32	; 50
     cca:	80 83       	st	Z, r24
     ccc:	81 83       	std	Z+1, r24	; 0x01
     cce:	82 83       	std	Z+2, r24	; 0x02
     cd0:	10 92 6e 02 	sts	0x026E, r1	; 0x80026e <slave_work_category>
     cd4:	10 92 80 02 	sts	0x0280, r1	; 0x800280 <LtState>
     cd8:	10 92 7f 02 	sts	0x027F, r1	; 0x80027f <line_tracker_data+0x1>
     cdc:	10 92 7e 02 	sts	0x027E, r1	; 0x80027e <line_tracker_data>
     ce0:	89 e0       	ldi	r24, 0x09	; 9
     ce2:	80 93 81 02 	sts	0x0281, r24	; 0x800281 <robot_rpm>
     ce6:	10 92 73 02 	sts	0x0273, r1	; 0x800273 <search_time>
     cea:	10 92 74 02 	sts	0x0274, r1	; 0x800274 <search_time+0x1>
     cee:	10 92 75 02 	sts	0x0275, r1	; 0x800275 <search_time+0x2>
     cf2:	10 92 76 02 	sts	0x0276, r1	; 0x800276 <search_time+0x3>
     cf6:	10 92 6f 02 	sts	0x026F, r1	; 0x80026f <rack_picktime>
     cfa:	10 92 70 02 	sts	0x0270, r1	; 0x800270 <rack_picktime+0x1>
     cfe:	10 92 71 02 	sts	0x0271, r1	; 0x800271 <rack_picktime+0x2>
     d02:	10 92 72 02 	sts	0x0272, r1	; 0x800272 <rack_picktime+0x3>
     d06:	10 92 78 02 	sts	0x0278, r1	; 0x800278 <auto_mode>
     d0a:	10 92 77 02 	sts	0x0277, r1	; 0x800277 <search_auto>
     d0e:	10 92 03 02 	sts	0x0203, r1	; 0x800203 <rack_pickup>
     d12:	10 ba       	out	0x10, r1	; 16
     d14:	6c 98       	cbi	0x0d, 4	; 13
     d16:	74 9a       	sbi	0x0e, 4	; 14
     d18:	ea e0       	ldi	r30, 0x0A	; 10
     d1a:	f1 e0       	ldi	r31, 0x01	; 1
     d1c:	80 81       	ld	r24, Z
     d1e:	84 60       	ori	r24, 0x04	; 4
     d20:	80 83       	st	Z, r24
     d22:	ae df       	rcall	.-164    	; 0xc80 <_Z18init_timer_rampingv>
     d24:	c0 cf       	rjmp	.-128    	; 0xca6 <_Z14init_LedStripsv>
     d26:	08 95       	ret

00000d28 <_Z20Get_linetracker_datav>:

/**************************************************Get line tracker data and send the value from 10 to 80 or 0 if not found*************************/

char Get_linetracker_data()
{
	line_tracker_data = 0;
     d28:	10 92 7f 02 	sts	0x027F, r1	; 0x80027f <line_tracker_data+0x1>
     d2c:	10 92 7e 02 	sts	0x027E, r1	; 0x80027e <line_tracker_data>
	total_on_sensor = 0;
     d30:	10 92 7d 02 	sts	0x027D, r1	; 0x80027d <total_on_sensor>
	for(counter_i=0; counter_i < 8; counter_i++)
     d34:	10 92 79 02 	sts	0x0279, r1	; 0x800279 <counter_i>
     d38:	41 e0       	ldi	r20, 0x01	; 1
     d3a:	50 e0       	ldi	r21, 0x00	; 0
	{
		val = READ2(F,counter_i);
     d3c:	6f b1       	in	r22, 0x0f	; 15
     d3e:	70 e0       	ldi	r23, 0x00	; 0
     d40:	ca 01       	movw	r24, r20
     d42:	01 97       	sbiw	r24, 0x01	; 1
     d44:	02 c0       	rjmp	.+4      	; 0xd4a <_Z20Get_linetracker_datav+0x22>
     d46:	75 95       	asr	r23
     d48:	67 95       	ror	r22
     d4a:	8a 95       	dec	r24
     d4c:	e2 f7       	brpl	.-8      	; 0xd46 <_Z20Get_linetracker_datav+0x1e>
     d4e:	61 70       	andi	r22, 0x01	; 1
     d50:	60 93 7c 02 	sts	0x027C, r22	; 0x80027c <val>
		line_tracker_data += (val*(counter_i+1)*10);
     d54:	86 2f       	mov	r24, r22
     d56:	90 e0       	ldi	r25, 0x00	; 0
     d58:	84 9f       	mul	r24, r20
     d5a:	90 01       	movw	r18, r0
     d5c:	85 9f       	mul	r24, r21
     d5e:	30 0d       	add	r19, r0
     d60:	94 9f       	mul	r25, r20
     d62:	30 0d       	add	r19, r0
     d64:	11 24       	eor	r1, r1
     d66:	c9 01       	movw	r24, r18
     d68:	88 0f       	add	r24, r24
     d6a:	99 1f       	adc	r25, r25
     d6c:	22 0f       	add	r18, r18
     d6e:	33 1f       	adc	r19, r19
     d70:	22 0f       	add	r18, r18
     d72:	33 1f       	adc	r19, r19
     d74:	22 0f       	add	r18, r18
     d76:	33 1f       	adc	r19, r19
     d78:	28 0f       	add	r18, r24
     d7a:	39 1f       	adc	r19, r25
     d7c:	80 91 7e 02 	lds	r24, 0x027E	; 0x80027e <line_tracker_data>
     d80:	90 91 7f 02 	lds	r25, 0x027F	; 0x80027f <line_tracker_data+0x1>
     d84:	28 0f       	add	r18, r24
     d86:	39 1f       	adc	r19, r25
     d88:	30 93 7f 02 	sts	0x027F, r19	; 0x80027f <line_tracker_data+0x1>
     d8c:	20 93 7e 02 	sts	0x027E, r18	; 0x80027e <line_tracker_data>
		total_on_sensor += val;
     d90:	90 91 7d 02 	lds	r25, 0x027D	; 0x80027d <total_on_sensor>
     d94:	69 0f       	add	r22, r25
     d96:	60 93 7d 02 	sts	0x027D, r22	; 0x80027d <total_on_sensor>

char Get_linetracker_data()
{
	line_tracker_data = 0;
	total_on_sensor = 0;
	for(counter_i=0; counter_i < 8; counter_i++)
     d9a:	40 93 79 02 	sts	0x0279, r20	; 0x800279 <counter_i>
     d9e:	4f 5f       	subi	r20, 0xFF	; 255
     da0:	5f 4f       	sbci	r21, 0xFF	; 255
     da2:	49 30       	cpi	r20, 0x09	; 9
     da4:	51 05       	cpc	r21, r1
     da6:	51 f6       	brne	.-108    	; 0xd3c <_Z20Get_linetracker_datav+0x14>
	{
		val = READ2(F,counter_i);
		line_tracker_data += (val*(counter_i+1)*10);
		total_on_sensor += val;
	}
	total_on_sensor = (total_on_sensor == 0)?1:total_on_sensor;
     da8:	61 11       	cpse	r22, r1
     daa:	01 c0       	rjmp	.+2      	; 0xdae <_Z20Get_linetracker_datav+0x86>
     dac:	61 e0       	ldi	r22, 0x01	; 1
     dae:	60 93 7d 02 	sts	0x027D, r22	; 0x80027d <total_on_sensor>
	line_tracker_data = line_tracker_data/total_on_sensor;
     db2:	70 e0       	ldi	r23, 0x00	; 0
     db4:	c9 01       	movw	r24, r18
     db6:	62 d6       	rcall	.+3268   	; 0x1a7c <__divmodhi4>
     db8:	86 2f       	mov	r24, r22
     dba:	60 93 7e 02 	sts	0x027E, r22	; 0x80027e <line_tracker_data>
     dbe:	70 93 7f 02 	sts	0x027F, r23	; 0x80027f <line_tracker_data+0x1>
	return line_tracker_data;
}
     dc2:	08 95       	ret

00000dc4 <_Z18Send_data_to_Slavev>:

/*****************************************Function to send data to slave***************************/

void Send_data_to_Slave()
{
     dc4:	cf 93       	push	r28
     dc6:	df 93       	push	r29
	if(auto_mode)
     dc8:	80 91 78 02 	lds	r24, 0x0278	; 0x800278 <auto_mode>
     dcc:	88 23       	and	r24, r24
     dce:	69 f0       	breq	.+26     	; 0xdea <_Z18Send_data_to_Slavev+0x26>
	{
		UART3Transmit(START_BYTE_AUTO);
     dd0:	8e ef       	ldi	r24, 0xFE	; 254
     dd2:	c2 d3       	rcall	.+1924   	; 0x1558 <_Z13UART3Transmith>
		UART3Transmit(slave_work_category);
     dd4:	80 91 6e 02 	lds	r24, 0x026E	; 0x80026e <slave_work_category>
		UART3Transmit(Get_linetracker_data());
     dd8:	bf d3       	rcall	.+1918   	; 0x1558 <_Z13UART3Transmith>
     dda:	a6 df       	rcall	.-180    	; 0xd28 <_Z20Get_linetracker_datav>
     ddc:	bd d3       	rcall	.+1914   	; 0x1558 <_Z13UART3Transmith>
		UART3Transmit(LtState);
     dde:	80 91 80 02 	lds	r24, 0x0280	; 0x800280 <LtState>
     de2:	ba d3       	rcall	.+1908   	; 0x1558 <_Z13UART3Transmith>
		slave_work_category = static_position;
     de4:	10 92 6e 02 	sts	0x026E, r1	; 0x80026e <slave_work_category>
     de8:	0e c0       	rjmp	.+28     	; 0xe06 <_Z18Send_data_to_Slavev+0x42>
	}
	else
	{
		UART3Transmit(START_BYTE_MANUAL);
     dea:	8d ef       	ldi	r24, 0xFD	; 253
     dec:	b5 d3       	rcall	.+1898   	; 0x1558 <_Z13UART3Transmith>
		UART3Transmit(velocity_robot[0]);
     dee:	c2 e8       	ldi	r28, 0x82	; 130
     df0:	d2 e0       	ldi	r29, 0x02	; 2
     df2:	88 81       	ld	r24, Y
     df4:	b1 d3       	rcall	.+1890   	; 0x1558 <_Z13UART3Transmith>
		UART3Transmit(velocity_robot[1]);
     df6:	89 81       	ldd	r24, Y+1	; 0x01
     df8:	af d3       	rcall	.+1886   	; 0x1558 <_Z13UART3Transmith>
     dfa:	8a 81       	ldd	r24, Y+2	; 0x02
		UART3Transmit(velocity_robot[2]);
     dfc:	ad d3       	rcall	.+1882   	; 0x1558 <_Z13UART3Transmith>
     dfe:	82 e3       	ldi	r24, 0x32	; 50
     e00:	88 83       	st	Y, r24
		velocity_robot[0] = RESETDATA_JOYSTICK;
     e02:	89 83       	std	Y+1, r24	; 0x01
     e04:	8a 83       	std	Y+2, r24	; 0x02
		velocity_robot[1] = RESETDATA_JOYSTICK;
     e06:	df 91       	pop	r29
		velocity_robot[2] = RESETDATA_JOYSTICK;
     e08:	cf 91       	pop	r28
	}

	
}
     e0a:	08 95       	ret

00000e0c <_Z17orientation_checkv>:
     e0c:	1e 9b       	sbis	0x03, 6	; 3
     e0e:	07 c0       	rjmp	.+14     	; 0xe1e <_Z17orientation_checkv+0x12>
void orientation_check()
{
		//limit_switch 1
		if(READ(LTSWITCH_ORIENT_1))
		{
			LtState &= ~(1<<0);
     e10:	80 91 80 02 	lds	r24, 0x0280	; 0x800280 <LtState>
     e14:	8e 7f       	andi	r24, 0xFE	; 254
     e16:	80 93 80 02 	sts	0x0280, r24	; 0x800280 <LtState>
			CLEAR(LT1_LED);
     e1a:	44 98       	cbi	0x08, 4	; 8
     e1c:	06 c0       	rjmp	.+12     	; 0xe2a <_Z17orientation_checkv+0x1e>
		}
		else
		{
			LtState |= (1<<0);
     e1e:	80 91 80 02 	lds	r24, 0x0280	; 0x800280 <LtState>
     e22:	81 60       	ori	r24, 0x01	; 1
     e24:	80 93 80 02 	sts	0x0280, r24	; 0x800280 <LtState>
			SET(LT1_LED);
     e28:	44 9a       	sbi	0x08, 4	; 8
		}
		
		//limit_Switch 2
		if(READ(LTSWITCH_ORIENT_2))
     e2a:	1f 9b       	sbis	0x03, 7	; 3
     e2c:	07 c0       	rjmp	.+14     	; 0xe3c <_Z17orientation_checkv+0x30>
		{
			LtState &= ~(1<<1);
     e2e:	80 91 80 02 	lds	r24, 0x0280	; 0x800280 <LtState>
     e32:	8d 7f       	andi	r24, 0xFD	; 253
     e34:	80 93 80 02 	sts	0x0280, r24	; 0x800280 <LtState>
			CLEAR(LT2_LED);
     e38:	a1 98       	cbi	0x14, 1	; 20
     e3a:	06 c0       	rjmp	.+12     	; 0xe48 <_Z17orientation_checkv+0x3c>
		}
		else
		{
			LtState |= (1<<1);
     e3c:	80 91 80 02 	lds	r24, 0x0280	; 0x800280 <LtState>
     e40:	82 60       	ori	r24, 0x02	; 2
     e42:	80 93 80 02 	sts	0x0280, r24	; 0x800280 <LtState>
			SET(LT2_LED);
     e46:	a1 9a       	sbi	0x14, 1	; 20
		}
		
		//limit_Switch 3
		if (READ(LTSWITCH_ORIENT_3))
     e48:	1d 9b       	sbis	0x03, 5	; 3
     e4a:	07 c0       	rjmp	.+14     	; 0xe5a <_Z17orientation_checkv+0x4e>
		{
			LtState &= ~(1<<2);
     e4c:	80 91 80 02 	lds	r24, 0x0280	; 0x800280 <LtState>
     e50:	8b 7f       	andi	r24, 0xFB	; 251
     e52:	80 93 80 02 	sts	0x0280, r24	; 0x800280 <LtState>
			CLEAR(LT3_LED);
     e56:	40 98       	cbi	0x08, 0	; 8
     e58:	08 95       	ret
		}
		else
		{
			LtState |= (1<<2);
     e5a:	80 91 80 02 	lds	r24, 0x0280	; 0x800280 <LtState>
     e5e:	84 60       	ori	r24, 0x04	; 4
     e60:	80 93 80 02 	sts	0x0280, r24	; 0x800280 <LtState>
			SET(LT3_LED);
     e64:	40 9a       	sbi	0x08, 0	; 8
     e66:	08 95       	ret

00000e68 <_Z19operate_master_autov>:
	init_timer_ramping();
	init_LedStrips();
}

void operate_master_auto()
{
     e68:	0f 93       	push	r16
     e6a:	1f 93       	push	r17
	SET(AUTO_LED_STRIP);
     e6c:	a0 9a       	sbi	0x14, 0	; 20
	CLEAR(MANUAL_LED_STRIP);
     e6e:	46 98       	cbi	0x08, 6	; 8
	
	//toggling manual and automatic mode
	if(GAMEBUTTONA == START_BUTTON)
     e70:	80 91 89 02 	lds	r24, 0x0289	; 0x800289 <rcvdata>
     e74:	80 34       	cpi	r24, 0x40	; 64
     e76:	29 f4       	brne	.+10     	; 0xe82 <_Z19operate_master_autov+0x1a>
	{
		auto_mode = false;
     e78:	10 92 78 02 	sts	0x0278, r1	; 0x800278 <auto_mode>
		GAMEBUTTONA = 0;
     e7c:	10 92 89 02 	sts	0x0289, r1	; 0x800289 <rcvdata>
     e80:	61 c0       	rjmp	.+194    	; 0xf44 <_Z19operate_master_autov+0xdc>
	}
	//Automatic zone navigation
	else if(GAMEBUTTONA == BUTTON_A)
     e82:	81 30       	cpi	r24, 0x01	; 1
     e84:	89 f4       	brne	.+34     	; 0xea8 <_Z19operate_master_autov+0x40>
	{
		slave_work_category = Rack_load;
     e86:	80 93 6e 02 	sts	0x026E, r24	; 0x80026e <slave_work_category>
		auto_move_rack = true;
     e8a:	80 93 08 02 	sts	0x0208, r24	; 0x800208 <auto_move_rack>
		if(Rack_home_position)
     e8e:	80 91 09 02 	lds	r24, 0x0209	; 0x800209 <Rack_home_position>
     e92:	88 23       	and	r24, r24
     e94:	31 f0       	breq	.+12     	; 0xea2 <_Z19operate_master_autov+0x3a>
		inline void Set_P(float kP){kp = kP;};
		inline void Set_I(float kI){ki = kI;};
		inline void Set_D(float kD){kd = kD;};	
		inline void Set_SP(int sP){sp=sP;};
     e96:	8d ef       	ldi	r24, 0xFD	; 253
     e98:	9f ef       	ldi	r25, 0xFF	; 255
     e9a:	90 93 20 02 	sts	0x0220, r25	; 0x800220 <rack_motor_pid+0xd>
     e9e:	80 93 1f 02 	sts	0x021F, r24	; 0x80021f <rack_motor_pid+0xc>
			rack_motor_pid.Set_SP(-RACK_COUNT);
		GAMEBUTTONA = 0;
     ea2:	10 92 89 02 	sts	0x0289, r1	; 0x800289 <rcvdata>
     ea6:	4e c0       	rjmp	.+156    	; 0xf44 <_Z19operate_master_autov+0xdc>
	}
	else if(GAMEBUTTONA == BUTTON_B)
     ea8:	82 30       	cpi	r24, 0x02	; 2
     eaa:	29 f4       	brne	.+10     	; 0xeb6 <_Z19operate_master_autov+0x4e>
	{
		slave_work_category = Load1;
     eac:	80 93 6e 02 	sts	0x026E, r24	; 0x80026e <slave_work_category>
		GAMEBUTTONA = 0;
     eb0:	10 92 89 02 	sts	0x0289, r1	; 0x800289 <rcvdata>
     eb4:	47 c0       	rjmp	.+142    	; 0xf44 <_Z19operate_master_autov+0xdc>
	}
	else if (GAMEBUTTONA == BUTTON_X)
     eb6:	84 30       	cpi	r24, 0x04	; 4
     eb8:	31 f4       	brne	.+12     	; 0xec6 <_Z19operate_master_autov+0x5e>
	{
		slave_work_category = Load2;
     eba:	83 e0       	ldi	r24, 0x03	; 3
     ebc:	80 93 6e 02 	sts	0x026E, r24	; 0x80026e <slave_work_category>
		GAMEBUTTONA = 0;
     ec0:	10 92 89 02 	sts	0x0289, r1	; 0x800289 <rcvdata>
     ec4:	3f c0       	rjmp	.+126    	; 0xf44 <_Z19operate_master_autov+0xdc>
	}
	else if (GAMEBUTTONA == BUTTON_Y)
     ec6:	88 30       	cpi	r24, 0x08	; 8
     ec8:	31 f4       	brne	.+12     	; 0xed6 <_Z19operate_master_autov+0x6e>
	{
		slave_work_category = Golden_Rack;
     eca:	89 e0       	ldi	r24, 0x09	; 9
     ecc:	80 93 6e 02 	sts	0x026E, r24	; 0x80026e <slave_work_category>
		GAMEBUTTONA = 0;
     ed0:	10 92 89 02 	sts	0x0289, r1	; 0x800289 <rcvdata>
     ed4:	37 c0       	rjmp	.+110    	; 0xf44 <_Z19operate_master_autov+0xdc>
	}
	else if (!pass_the_shuttcock && !rack_throw_auto && !pneumatic_geneva_start && GAMEBUTTONA == RIGHT_BUTTON)
     ed6:	90 91 00 02 	lds	r25, 0x0200	; 0x800200 <_edata>
     eda:	91 11       	cpse	r25, r1
     edc:	33 c0       	rjmp	.+102    	; 0xf44 <_Z19operate_master_autov+0xdc>
     ede:	90 91 04 02 	lds	r25, 0x0204	; 0x800204 <rack_throw_auto>
     ee2:	91 11       	cpse	r25, r1
     ee4:	2f c0       	rjmp	.+94     	; 0xf44 <_Z19operate_master_autov+0xdc>
     ee6:	90 91 02 02 	lds	r25, 0x0202	; 0x800202 <pneumatic_geneva_start>
     eea:	91 11       	cpse	r25, r1
     eec:	2b c0       	rjmp	.+86     	; 0xf44 <_Z19operate_master_autov+0xdc>
     eee:	80 32       	cpi	r24, 0x20	; 32
     ef0:	49 f5       	brne	.+82     	; 0xf44 <_Z19operate_master_autov+0xdc>
	{
		//until the shuttlecock passing completes and until rack auto rack throw completes and until the geneva completes it's rotation
		if(inside_robot)
     ef2:	80 91 01 02 	lds	r24, 0x0201	; 0x800201 <inside_robot>
     ef6:	88 23       	and	r24, r24
     ef8:	89 f0       	breq	.+34     	; 0xf1c <_Z19operate_master_autov+0xb4>
		{
			pneumatic_geneva_start = true;
     efa:	81 e0       	ldi	r24, 0x01	; 1
     efc:	80 93 02 02 	sts	0x0202, r24	; 0x800202 <pneumatic_geneva_start>
			pneumatic_geneva_time = millis();
     f00:	6e da       	rcall	.-2852   	; 0x3de <_Z6millisv>
     f02:	60 93 49 02 	sts	0x0249, r22	; 0x800249 <pneumatic_geneva_time>
     f06:	70 93 4a 02 	sts	0x024A, r23	; 0x80024a <pneumatic_geneva_time+0x1>
     f0a:	80 93 4b 02 	sts	0x024B, r24	; 0x80024b <pneumatic_geneva_time+0x2>
     f0e:	90 93 4c 02 	sts	0x024C, r25	; 0x80024c <pneumatic_geneva_time+0x3>
			SHUTTCOCK_GRIP_TOGGLE();
     f12:	92 b1       	in	r25, 0x02	; 2
     f14:	84 e0       	ldi	r24, 0x04	; 4
     f16:	89 27       	eor	r24, r25
     f18:	82 b9       	out	0x02, r24	; 2
     f1a:	01 c0       	rjmp	.+2      	; 0xf1e <_Z19operate_master_autov+0xb6>
		}
		else
		{
			SHUTTCOCK_GRIP_CLOSE();
     f1c:	12 98       	cbi	0x02, 2	; 2
		}
		
		pass_the_shuttcock = true;
     f1e:	11 e0       	ldi	r17, 0x01	; 1
     f20:	10 93 00 02 	sts	0x0200, r17	; 0x800200 <_edata>
		passing_time = millis();
     f24:	5c da       	rcall	.-2888   	; 0x3de <_Z6millisv>
     f26:	60 93 45 02 	sts	0x0245, r22	; 0x800245 <passing_time>
     f2a:	70 93 46 02 	sts	0x0246, r23	; 0x800246 <passing_time+0x1>
     f2e:	80 93 47 02 	sts	0x0247, r24	; 0x800247 <passing_time+0x2>
     f32:	90 93 48 02 	sts	0x0248, r25	; 0x800248 <passing_time+0x3>
		inside_robot = (1^inside_robot);
     f36:	80 91 01 02 	lds	r24, 0x0201	; 0x800201 <inside_robot>
     f3a:	18 27       	eor	r17, r24
     f3c:	10 93 01 02 	sts	0x0201, r17	; 0x800201 <inside_robot>
		GAMEBUTTONA = 0;
     f40:	10 92 89 02 	sts	0x0289, r1	; 0x800289 <rcvdata>
	}

	
	if (GAMEBUTTONB == LEFT_BUTTON)
     f44:	80 91 8a 02 	lds	r24, 0x028A	; 0x80028a <rcvdata+0x1>
     f48:	80 32       	cpi	r24, 0x20	; 32
     f4a:	31 f4       	brne	.+12     	; 0xf58 <_Z19operate_master_autov+0xf0>
	{
		slave_work_category = Search_automaticrobot;
     f4c:	84 e0       	ldi	r24, 0x04	; 4
     f4e:	80 93 6e 02 	sts	0x026E, r24	; 0x80026e <slave_work_category>
		GAMEBUTTONB = 0;
     f52:	10 92 8a 02 	sts	0x028A, r1	; 0x80028a <rcvdata+0x1>
     f56:	16 c0       	rjmp	.+44     	; 0xf84 <_Z19operate_master_autov+0x11c>
	}	
	else if(GAMEBUTTONB == UP)
     f58:	81 30       	cpi	r24, 0x01	; 1
     f5a:	21 f4       	brne	.+8      	; 0xf64 <_Z19operate_master_autov+0xfc>
	{
		slave_work_category = up_rob;
     f5c:	85 e0       	ldi	r24, 0x05	; 5
     f5e:	80 93 6e 02 	sts	0x026E, r24	; 0x80026e <slave_work_category>
     f62:	10 c0       	rjmp	.+32     	; 0xf84 <_Z19operate_master_autov+0x11c>
	}	
	else if(GAMEBUTTONB == DOWN)
     f64:	84 30       	cpi	r24, 0x04	; 4
     f66:	21 f4       	brne	.+8      	; 0xf70 <_Z19operate_master_autov+0x108>
	{
		slave_work_category = down_rob;
     f68:	86 e0       	ldi	r24, 0x06	; 6
     f6a:	80 93 6e 02 	sts	0x026E, r24	; 0x80026e <slave_work_category>
     f6e:	0a c0       	rjmp	.+20     	; 0xf84 <_Z19operate_master_autov+0x11c>
	}
	else if(GAMEBUTTONB == RIGHT)
     f70:	82 30       	cpi	r24, 0x02	; 2
     f72:	21 f4       	brne	.+8      	; 0xf7c <_Z19operate_master_autov+0x114>
	{
		slave_work_category = right_rob;
     f74:	87 e0       	ldi	r24, 0x07	; 7
     f76:	80 93 6e 02 	sts	0x026E, r24	; 0x80026e <slave_work_category>
     f7a:	04 c0       	rjmp	.+8      	; 0xf84 <_Z19operate_master_autov+0x11c>
	}
	else if(GAMEBUTTONB == LEFT)
     f7c:	88 30       	cpi	r24, 0x08	; 8
     f7e:	11 f4       	brne	.+4      	; 0xf84 <_Z19operate_master_autov+0x11c>
	{
		slave_work_category = left_rob;
     f80:	80 93 6e 02 	sts	0x026E, r24	; 0x80026e <slave_work_category>
	}
	
	
	//if reached rack loading zone
	if(SLAVE_DATA == Rack_zone)
     f84:	80 91 88 02 	lds	r24, 0x0288	; 0x800288 <rcv_value_slave>
     f88:	84 30       	cpi	r24, 0x04	; 4
     f8a:	a1 f4       	brne	.+40     	; 0xfb4 <_Z19operate_master_autov+0x14c>
	{
		rack_throw_auto = true;
     f8c:	81 e0       	ldi	r24, 0x01	; 1
     f8e:	80 93 04 02 	sts	0x0204, r24	; 0x800204 <rack_throw_auto>
		SHUTTCOCK_PASS_OPEN();
     f92:	47 9a       	sbi	0x08, 7	; 8
		RACK_GRIP_CLOSE();
     f94:	10 9a       	sbi	0x02, 0	; 2
		rack_pickup = true;
     f96:	80 93 03 02 	sts	0x0203, r24	; 0x800203 <rack_pickup>
		rack_picktime = millis();
     f9a:	21 da       	rcall	.-3006   	; 0x3de <_Z6millisv>
     f9c:	60 93 6f 02 	sts	0x026F, r22	; 0x80026f <rack_picktime>
     fa0:	70 93 70 02 	sts	0x0270, r23	; 0x800270 <rack_picktime+0x1>
     fa4:	80 93 71 02 	sts	0x0271, r24	; 0x800271 <rack_picktime+0x2>
     fa8:	90 93 72 02 	sts	0x0272, r25	; 0x800272 <rack_picktime+0x3>
		disable_proximity();
     fac:	07 da       	rcall	.-3058   	; 0x3bc <_Z17disable_proximityv>
		SLAVE_DATA = 0;
     fae:	10 92 88 02 	sts	0x0288, r1	; 0x800288 <rcv_value_slave>
	}
	else if(SLAVE_DATA == Golden_zone)
     fb2:	56 c0       	rjmp	.+172    	; 0x1060 <_Z19operate_master_autov+0x1f8>
     fb4:	85 30       	cpi	r24, 0x05	; 5
	{
		RACK_GRIP_CLOSE();
     fb6:	89 f4       	brne	.+34     	; 0xfda <_Z19operate_master_autov+0x172>
		disable_proximity();
     fb8:	10 9a       	sbi	0x02, 0	; 2
		rack_pickup = true;
     fba:	00 da       	rcall	.-3072   	; 0x3bc <_Z17disable_proximityv>
     fbc:	81 e0       	ldi	r24, 0x01	; 1
     fbe:	80 93 03 02 	sts	0x0203, r24	; 0x800203 <rack_pickup>
		rack_picktime = millis();
     fc2:	0d da       	rcall	.-3046   	; 0x3de <_Z6millisv>
     fc4:	60 93 6f 02 	sts	0x026F, r22	; 0x80026f <rack_picktime>
     fc8:	70 93 70 02 	sts	0x0270, r23	; 0x800270 <rack_picktime+0x1>
     fcc:	80 93 71 02 	sts	0x0271, r24	; 0x800271 <rack_picktime+0x2>
     fd0:	90 93 72 02 	sts	0x0272, r25	; 0x800272 <rack_picktime+0x3>
		SLAVE_DATA = 0;
     fd4:	10 92 88 02 	sts	0x0288, r1	; 0x800288 <rcv_value_slave>
     fd8:	43 c0       	rjmp	.+134    	; 0x1060 <_Z19operate_master_autov+0x1f8>
	}
	else if(!pass_the_shuttcock && !rack_throw_auto && !pneumatic_geneva_start && SLAVE_DATA == Give_shutcock)
     fda:	90 91 00 02 	lds	r25, 0x0200	; 0x800200 <_edata>
     fde:	91 11       	cpse	r25, r1
     fe0:	34 c0       	rjmp	.+104    	; 0x104a <_Z19operate_master_autov+0x1e2>
     fe2:	90 91 04 02 	lds	r25, 0x0204	; 0x800204 <rack_throw_auto>
     fe6:	91 11       	cpse	r25, r1
     fe8:	30 c0       	rjmp	.+96     	; 0x104a <_Z19operate_master_autov+0x1e2>
     fea:	90 91 02 02 	lds	r25, 0x0202	; 0x800202 <pneumatic_geneva_start>
     fee:	91 11       	cpse	r25, r1
     ff0:	2c c0       	rjmp	.+88     	; 0x104a <_Z19operate_master_autov+0x1e2>
     ff2:	8a 30       	cpi	r24, 0x0A	; 10
     ff4:	51 f5       	brne	.+84     	; 0x104a <_Z19operate_master_autov+0x1e2>
	{
		if(inside_robot)
     ff6:	80 91 01 02 	lds	r24, 0x0201	; 0x800201 <inside_robot>
     ffa:	88 23       	and	r24, r24
		{
			pneumatic_geneva_start = true;
     ffc:	89 f0       	breq	.+34     	; 0x1020 <_Z19operate_master_autov+0x1b8>
     ffe:	81 e0       	ldi	r24, 0x01	; 1
    1000:	80 93 02 02 	sts	0x0202, r24	; 0x800202 <pneumatic_geneva_start>
			pneumatic_geneva_time = millis();
    1004:	ec d9       	rcall	.-3112   	; 0x3de <_Z6millisv>
    1006:	60 93 49 02 	sts	0x0249, r22	; 0x800249 <pneumatic_geneva_time>
    100a:	70 93 4a 02 	sts	0x024A, r23	; 0x80024a <pneumatic_geneva_time+0x1>
    100e:	80 93 4b 02 	sts	0x024B, r24	; 0x80024b <pneumatic_geneva_time+0x2>
    1012:	90 93 4c 02 	sts	0x024C, r25	; 0x80024c <pneumatic_geneva_time+0x3>
			SHUTTCOCK_GRIP_TOGGLE();
    1016:	92 b1       	in	r25, 0x02	; 2
    1018:	84 e0       	ldi	r24, 0x04	; 4
    101a:	89 27       	eor	r24, r25
    101c:	82 b9       	out	0x02, r24	; 2
		}
		else
		{
			SHUTTCOCK_GRIP_CLOSE();
    101e:	01 c0       	rjmp	.+2      	; 0x1022 <_Z19operate_master_autov+0x1ba>
		}
		
		pass_the_shuttcock = true;
    1020:	12 98       	cbi	0x02, 2	; 2
    1022:	11 e0       	ldi	r17, 0x01	; 1
    1024:	10 93 00 02 	sts	0x0200, r17	; 0x800200 <_edata>
		passing_time = millis();
    1028:	da d9       	rcall	.-3148   	; 0x3de <_Z6millisv>
    102a:	60 93 45 02 	sts	0x0245, r22	; 0x800245 <passing_time>
    102e:	70 93 46 02 	sts	0x0246, r23	; 0x800246 <passing_time+0x1>
    1032:	80 93 47 02 	sts	0x0247, r24	; 0x800247 <passing_time+0x2>
    1036:	90 93 48 02 	sts	0x0248, r25	; 0x800248 <passing_time+0x3>
		inside_robot = (1^inside_robot);
    103a:	80 91 01 02 	lds	r24, 0x0201	; 0x800201 <inside_robot>
    103e:	18 27       	eor	r17, r24
    1040:	10 93 01 02 	sts	0x0201, r17	; 0x800201 <inside_robot>
		SLAVE_DATA = 0;
    1044:	10 92 88 02 	sts	0x0288, r1	; 0x800288 <rcv_value_slave>
	}
	else if(SLAVE_DATA == enable_prox)
    1048:	0b c0       	rjmp	.+22     	; 0x1060 <_Z19operate_master_autov+0x1f8>
	{
		enable_proximity();		
    104a:	8b 30       	cpi	r24, 0x0B	; 11
    104c:	21 f4       	brne	.+8      	; 0x1056 <_Z19operate_master_autov+0x1ee>
		SLAVE_DATA = 0;
    104e:	ab d9       	rcall	.-3242   	; 0x3a6 <_Z16enable_proximityv>
    1050:	10 92 88 02 	sts	0x0288, r1	; 0x800288 <rcv_value_slave>
	}
	else if(SLAVE_DATA == enable_gldprox)
    1054:	05 c0       	rjmp	.+10     	; 0x1060 <_Z19operate_master_autov+0x1f8>
	{
		enable_golden_eye();
    1056:	8c 30       	cpi	r24, 0x0C	; 12
    1058:	19 f4       	brne	.+6      	; 0x1060 <_Z19operate_master_autov+0x1f8>
		SLAVE_DATA = 0;
    105a:	b3 d9       	rcall	.-3226   	; 0x3c2 <_Z17enable_golden_eyev>
    105c:	10 92 88 02 	sts	0x0288, r1	; 0x800288 <rcv_value_slave>
	}
	
	
	if(rack_pickup && (millis()-rack_picktime) >= 500)
    1060:	80 91 03 02 	lds	r24, 0x0203	; 0x800203 <rack_pickup>
    1064:	88 23       	and	r24, r24
    1066:	79 f1       	breq	.+94     	; 0x10c6 <_Z19operate_master_autov+0x25e>
    1068:	ba d9       	rcall	.-3212   	; 0x3de <_Z6millisv>
    106a:	00 91 6f 02 	lds	r16, 0x026F	; 0x80026f <rack_picktime>
    106e:	10 91 70 02 	lds	r17, 0x0270	; 0x800270 <rack_picktime+0x1>
    1072:	20 91 71 02 	lds	r18, 0x0271	; 0x800271 <rack_picktime+0x2>
    1076:	30 91 72 02 	lds	r19, 0x0272	; 0x800272 <rack_picktime+0x3>
    107a:	dc 01       	movw	r26, r24
    107c:	cb 01       	movw	r24, r22
    107e:	80 1b       	sub	r24, r16
    1080:	91 0b       	sbc	r25, r17
    1082:	a2 0b       	sbc	r26, r18
    1084:	b3 0b       	sbc	r27, r19
    1086:	84 3f       	cpi	r24, 0xF4	; 244
    1088:	91 40       	sbci	r25, 0x01	; 1
    108a:	a1 05       	cpc	r26, r1
    108c:	b1 05       	cpc	r27, r1
    108e:	d8 f0       	brcs	.+54     	; 0x10c6 <_Z19operate_master_autov+0x25e>
	{
		RACK_LIFT_OPEN();
    1090:	14 9a       	sbi	0x02, 4	; 2
		rack_pickup = false;
    1092:	10 92 03 02 	sts	0x0203, r1	; 0x800203 <rack_pickup>
		
		if(rack_throw_auto)
    1096:	80 91 04 02 	lds	r24, 0x0204	; 0x800204 <rack_throw_auto>
    109a:	88 23       	and	r24, r24
    109c:	89 f0       	breq	.+34     	; 0x10c0 <_Z19operate_master_autov+0x258>
		{
			auto_move_rack = true;
    109e:	81 e0       	ldi	r24, 0x01	; 1
    10a0:	80 93 08 02 	sts	0x0208, r24	; 0x800208 <auto_move_rack>
			if(!Rack_home_position)
    10a4:	80 91 09 02 	lds	r24, 0x0209	; 0x800209 <Rack_home_position>
    10a8:	81 11       	cpse	r24, r1
    10aa:	06 c0       	rjmp	.+12     	; 0x10b8 <_Z19operate_master_autov+0x250>
    10ac:	83 e0       	ldi	r24, 0x03	; 3
    10ae:	90 e0       	ldi	r25, 0x00	; 0
    10b0:	90 93 20 02 	sts	0x0220, r25	; 0x800220 <rack_motor_pid+0xd>
    10b4:	80 93 1f 02 	sts	0x021F, r24	; 0x80021f <rack_motor_pid+0xc>
				rack_motor_pid.Set_SP(RACK_COUNT);
			slave_work_category = Load1;
    10b8:	82 e0       	ldi	r24, 0x02	; 2
    10ba:	80 93 6e 02 	sts	0x026E, r24	; 0x80026e <slave_work_category>
    10be:	0b c0       	rjmp	.+22     	; 0x10d6 <_Z19operate_master_autov+0x26e>
		}
		else
		{
			slave_work_category = Golden_Rack;
    10c0:	89 e0       	ldi	r24, 0x09	; 9
		}
		
	}
	
	//if not rack auto move stop rack motor
	if(!auto_move_rack)
    10c2:	80 93 6e 02 	sts	0x026E, r24	; 0x80026e <slave_work_category>
    10c6:	80 91 08 02 	lds	r24, 0x0208	; 0x800208 <auto_move_rack>
    10ca:	81 11       	cpse	r24, r1
    10cc:	04 c0       	rjmp	.+8      	; 0x10d6 <_Z19operate_master_autov+0x26e>
    10ce:	10 92 20 02 	sts	0x0220, r1	; 0x800220 <rack_motor_pid+0xd>
		rack_motor_pid.Set_SP(0);
		
	operation_of_rack();
    10d2:	10 92 1f 02 	sts	0x021F, r1	; 0x80021f <rack_motor_pid+0xc>
	rack_limit_check();
    10d6:	af dc       	rcall	.-1698   	; 0xa36 <_Z17operation_of_rackv>
    10d8:	24 da       	rcall	.-3000   	; 0x522 <_Z16rack_limit_checkv>
	orientation_check();
    10da:	98 de       	rcall	.-720    	; 0xe0c <_Z17orientation_checkv>
    10dc:	1f 91       	pop	r17
}
    10de:	0f 91       	pop	r16
    10e0:	08 95       	ret

000010e2 <_Z21operate_master_manualv>:
    10e2:	0f 93       	push	r16


void operate_master_manual()
{
    10e4:	1f 93       	push	r17
    10e6:	cf 93       	push	r28
    10e8:	df 93       	push	r29
	/**********************************************GAMEBUTTONB_SECTION*********************************/
	SET(MANUAL_LED_STRIP);
    10ea:	46 9a       	sbi	0x08, 6	; 8
	CLEAR(AUTO_LED_STRIP);
    10ec:	a0 98       	cbi	0x14, 0	; 20
	
	if (GAMEBUTTONB == RIGHT)
    10ee:	80 91 8a 02 	lds	r24, 0x028A	; 0x80028a <rcvdata+0x1>
    10f2:	82 30       	cpi	r24, 0x02	; 2
    10f4:	51 f4       	brne	.+20     	; 0x110a <_Z21operate_master_manualv+0x28>
	{
		velocity_robot[0] = RESETDATA_JOYSTICK;
    10f6:	e2 e8       	ldi	r30, 0x82	; 130
    10f8:	f2 e0       	ldi	r31, 0x02	; 2
    10fa:	92 e3       	ldi	r25, 0x32	; 50
    10fc:	90 83       	st	Z, r25
		velocity_robot[1] = RESETDATA_JOYSTICK + robot_rpm;
    10fe:	80 91 81 02 	lds	r24, 0x0281	; 0x800281 <robot_rpm>
    1102:	8e 5c       	subi	r24, 0xCE	; 206
    1104:	81 83       	std	Z+1, r24	; 0x01
		velocity_robot[2] = RESETDATA_JOYSTICK;
    1106:	92 83       	std	Z+2, r25	; 0x02
    1108:	25 c0       	rjmp	.+74     	; 0x1154 <_Z21operate_master_manualv+0x72>
	}
	else if (GAMEBUTTONB == LEFT)
    110a:	88 30       	cpi	r24, 0x08	; 8
    110c:	59 f4       	brne	.+22     	; 0x1124 <_Z21operate_master_manualv+0x42>
	{
		velocity_robot[0] = RESETDATA_JOYSTICK;
    110e:	e2 e8       	ldi	r30, 0x82	; 130
    1110:	f2 e0       	ldi	r31, 0x02	; 2
    1112:	82 e3       	ldi	r24, 0x32	; 50
    1114:	80 83       	st	Z, r24
		velocity_robot[1] = RESETDATA_JOYSTICK - robot_rpm;
    1116:	90 91 81 02 	lds	r25, 0x0281	; 0x800281 <robot_rpm>
    111a:	28 2f       	mov	r18, r24
    111c:	29 1b       	sub	r18, r25
    111e:	21 83       	std	Z+1, r18	; 0x01
		velocity_robot[2] = RESETDATA_JOYSTICK;
    1120:	82 83       	std	Z+2, r24	; 0x02
    1122:	18 c0       	rjmp	.+48     	; 0x1154 <_Z21operate_master_manualv+0x72>
	}
	else if (GAMEBUTTONB == UP)
    1124:	81 30       	cpi	r24, 0x01	; 1
    1126:	51 f4       	brne	.+20     	; 0x113c <_Z21operate_master_manualv+0x5a>
	{
		velocity_robot[0] = RESETDATA_JOYSTICK + robot_rpm;
    1128:	e2 e8       	ldi	r30, 0x82	; 130
    112a:	f2 e0       	ldi	r31, 0x02	; 2
    112c:	80 91 81 02 	lds	r24, 0x0281	; 0x800281 <robot_rpm>
    1130:	8e 5c       	subi	r24, 0xCE	; 206
    1132:	80 83       	st	Z, r24
		velocity_robot[1] = RESETDATA_JOYSTICK;
    1134:	82 e3       	ldi	r24, 0x32	; 50
    1136:	81 83       	std	Z+1, r24	; 0x01
		velocity_robot[2] = RESETDATA_JOYSTICK;
    1138:	82 83       	std	Z+2, r24	; 0x02
    113a:	0c c0       	rjmp	.+24     	; 0x1154 <_Z21operate_master_manualv+0x72>
		//front_drive = true;
		
	}
	else if (GAMEBUTTONB == DOWN)
    113c:	84 30       	cpi	r24, 0x04	; 4
    113e:	51 f4       	brne	.+20     	; 0x1154 <_Z21operate_master_manualv+0x72>
	{
		velocity_robot[0] = RESETDATA_JOYSTICK - robot_rpm;
    1140:	e2 e8       	ldi	r30, 0x82	; 130
    1142:	f2 e0       	ldi	r31, 0x02	; 2
    1144:	82 e3       	ldi	r24, 0x32	; 50
    1146:	90 91 81 02 	lds	r25, 0x0281	; 0x800281 <robot_rpm>
    114a:	68 2f       	mov	r22, r24
    114c:	69 1b       	sub	r22, r25
    114e:	60 83       	st	Z, r22
		velocity_robot[1] = RESETDATA_JOYSTICK;
    1150:	81 83       	std	Z+1, r24	; 0x01
		velocity_robot[2] = RESETDATA_JOYSTICK;
    1152:	82 83       	std	Z+2, r24	; 0x02
		//back_drive = true;
	}
	
	
	/**********************************************************************GAMEBUTTONA_SECTION****************************/
	if(GAMEBUTTONA == START_BUTTON)
    1154:	80 91 89 02 	lds	r24, 0x0289	; 0x800289 <rcvdata>
    1158:	80 34       	cpi	r24, 0x40	; 64
    115a:	31 f4       	brne	.+12     	; 0x1168 <_Z21operate_master_manualv+0x86>
	{
		auto_mode = true;
    115c:	81 e0       	ldi	r24, 0x01	; 1
    115e:	80 93 78 02 	sts	0x0278, r24	; 0x800278 <auto_mode>
		GAMEBUTTONA = 0;
    1162:	10 92 89 02 	sts	0x0289, r1	; 0x800289 <rcvdata>
    1166:	8d c0       	rjmp	.+282    	; 0x1282 <_Z21operate_master_manualv+0x1a0>
	}
	else if (GAMEBUTTONA == BUTTON_A)
    1168:	81 30       	cpi	r24, 0x01	; 1
    116a:	31 f4       	brne	.+12     	; 0x1178 <_Z21operate_master_manualv+0x96>
	{
		RACK_GRIP_TOGGLE();
    116c:	92 b1       	in	r25, 0x02	; 2
    116e:	89 27       	eor	r24, r25
    1170:	82 b9       	out	0x02, r24	; 2
		GAMEBUTTONA = 0;
    1172:	10 92 89 02 	sts	0x0289, r1	; 0x800289 <rcvdata>
    1176:	85 c0       	rjmp	.+266    	; 0x1282 <_Z21operate_master_manualv+0x1a0>
	}
	else if (GAMEBUTTONA == BUTTON_B && !Rack_home_position)
    1178:	82 30       	cpi	r24, 0x02	; 2
    117a:	59 f4       	brne	.+22     	; 0x1192 <_Z21operate_master_manualv+0xb0>
    117c:	90 91 09 02 	lds	r25, 0x0209	; 0x800209 <Rack_home_position>
    1180:	91 11       	cpse	r25, r1
    1182:	48 c0       	rjmp	.+144    	; 0x1214 <_Z21operate_master_manualv+0x132>
	{
		RACK_LIFT_TOGGLE();
    1184:	92 b1       	in	r25, 0x02	; 2
    1186:	80 e1       	ldi	r24, 0x10	; 16
    1188:	89 27       	eor	r24, r25
    118a:	82 b9       	out	0x02, r24	; 2
		GAMEBUTTONA = 0;
    118c:	10 92 89 02 	sts	0x0289, r1	; 0x800289 <rcvdata>
    1190:	78 c0       	rjmp	.+240    	; 0x1282 <_Z21operate_master_manualv+0x1a0>
	}
	else if (GAMEBUTTONA == BUTTON_X)
    1192:	84 30       	cpi	r24, 0x04	; 4
    1194:	b9 f4       	brne	.+46     	; 0x11c4 <_Z21operate_master_manualv+0xe2>
	{
		auto_move_rack = true;
    1196:	81 e0       	ldi	r24, 0x01	; 1
    1198:	80 93 08 02 	sts	0x0208, r24	; 0x800208 <auto_move_rack>
		if(Rack_home_position)
    119c:	80 91 09 02 	lds	r24, 0x0209	; 0x800209 <Rack_home_position>
    11a0:	88 23       	and	r24, r24
    11a2:	39 f0       	breq	.+14     	; 0x11b2 <_Z21operate_master_manualv+0xd0>
    11a4:	8d ef       	ldi	r24, 0xFD	; 253
    11a6:	9f ef       	ldi	r25, 0xFF	; 255
    11a8:	90 93 20 02 	sts	0x0220, r25	; 0x800220 <rack_motor_pid+0xd>
    11ac:	80 93 1f 02 	sts	0x021F, r24	; 0x80021f <rack_motor_pid+0xc>
    11b0:	06 c0       	rjmp	.+12     	; 0x11be <_Z21operate_master_manualv+0xdc>
    11b2:	83 e0       	ldi	r24, 0x03	; 3
    11b4:	90 e0       	ldi	r25, 0x00	; 0
    11b6:	90 93 20 02 	sts	0x0220, r25	; 0x800220 <rack_motor_pid+0xd>
    11ba:	80 93 1f 02 	sts	0x021F, r24	; 0x80021f <rack_motor_pid+0xc>
		}
		else
		{
			rack_motor_pid.Set_SP(RACK_COUNT);
		}
		GAMEBUTTONA = 0;
    11be:	10 92 89 02 	sts	0x0289, r1	; 0x800289 <rcvdata>
    11c2:	70 c0       	rjmp	.+224    	; 0x12a4 <_Z21operate_master_manualv+0x1c2>
	}
	else if (GAMEBUTTONA == BUTTON_Y)
    11c4:	88 30       	cpi	r24, 0x08	; 8
    11c6:	61 f4       	brne	.+24     	; 0x11e0 <_Z21operate_master_manualv+0xfe>
    11c8:	88 e6       	ldi	r24, 0x68	; 104
    11ca:	91 e0       	ldi	r25, 0x01	; 1
    11cc:	90 93 38 02 	sts	0x0238, r25	; 0x800238 <angle_pid+0xd>
    11d0:	80 93 37 02 	sts	0x0237, r24	; 0x800237 <angle_pid+0xc>
	{
		angle_pid.Set_SP(360);
		Geneva_Start = true;
    11d4:	81 e0       	ldi	r24, 0x01	; 1
    11d6:	80 93 0a 02 	sts	0x020A, r24	; 0x80020a <Geneva_Start>
		GAMEBUTTONA = 0;
    11da:	10 92 89 02 	sts	0x0289, r1	; 0x800289 <rcvdata>
    11de:	51 c0       	rjmp	.+162    	; 0x1282 <_Z21operate_master_manualv+0x1a0>
	}
	else if (GAMEBUTTONA == RIGHT_STICK_CLICK && !Rack_home_position)
    11e0:	80 31       	cpi	r24, 0x10	; 16
    11e2:	c1 f4       	brne	.+48     	; 0x1214 <_Z21operate_master_manualv+0x132>
    11e4:	90 91 09 02 	lds	r25, 0x0209	; 0x800209 <Rack_home_position>
    11e8:	91 11       	cpse	r25, r1
    11ea:	14 c0       	rjmp	.+40     	; 0x1214 <_Z21operate_master_manualv+0x132>
	{
		auto_move_rack = true;
    11ec:	81 e0       	ldi	r24, 0x01	; 1
    11ee:	80 93 08 02 	sts	0x0208, r24	; 0x800208 <auto_move_rack>
		rack_throw_auto = true;
    11f2:	80 93 04 02 	sts	0x0204, r24	; 0x800204 <rack_throw_auto>
		SHUTTCOCK_PASS_OPEN();
    11f6:	47 9a       	sbi	0x08, 7	; 8
		RACK_LIFT_OPEN();
    11f8:	14 9a       	sbi	0x02, 4	; 2
		if(!Rack_home_position)
    11fa:	80 91 09 02 	lds	r24, 0x0209	; 0x800209 <Rack_home_position>
    11fe:	81 11       	cpse	r24, r1
    1200:	06 c0       	rjmp	.+12     	; 0x120e <_Z21operate_master_manualv+0x12c>
    1202:	83 e0       	ldi	r24, 0x03	; 3
    1204:	90 e0       	ldi	r25, 0x00	; 0
    1206:	90 93 20 02 	sts	0x0220, r25	; 0x800220 <rack_motor_pid+0xd>
    120a:	80 93 1f 02 	sts	0x021F, r24	; 0x80021f <rack_motor_pid+0xc>
			rack_motor_pid.Set_SP(RACK_COUNT);
		GAMEBUTTONA = 0;
    120e:	10 92 89 02 	sts	0x0289, r1	; 0x800289 <rcvdata>
    1212:	37 c0       	rjmp	.+110    	; 0x1282 <_Z21operate_master_manualv+0x1a0>
	}
	else if (!pass_the_shuttcock && !rack_throw_auto && !pneumatic_geneva_start && GAMEBUTTONA == RIGHT_BUTTON)	
    1214:	90 91 00 02 	lds	r25, 0x0200	; 0x800200 <_edata>
    1218:	91 11       	cpse	r25, r1
    121a:	33 c0       	rjmp	.+102    	; 0x1282 <_Z21operate_master_manualv+0x1a0>
    121c:	90 91 04 02 	lds	r25, 0x0204	; 0x800204 <rack_throw_auto>
    1220:	91 11       	cpse	r25, r1
    1222:	2f c0       	rjmp	.+94     	; 0x1282 <_Z21operate_master_manualv+0x1a0>
    1224:	90 91 02 02 	lds	r25, 0x0202	; 0x800202 <pneumatic_geneva_start>
    1228:	91 11       	cpse	r25, r1
    122a:	2b c0       	rjmp	.+86     	; 0x1282 <_Z21operate_master_manualv+0x1a0>
    122c:	80 32       	cpi	r24, 0x20	; 32
    122e:	49 f5       	brne	.+82     	; 0x1282 <_Z21operate_master_manualv+0x1a0>
	{
		//until the shuttlecock passing completes and until rack auto rack throw completes and until the geneva completes it's rotation
		if(inside_robot)
    1230:	80 91 01 02 	lds	r24, 0x0201	; 0x800201 <inside_robot>
    1234:	88 23       	and	r24, r24
    1236:	89 f0       	breq	.+34     	; 0x125a <_Z21operate_master_manualv+0x178>
		{
			pneumatic_geneva_start = true;
    1238:	81 e0       	ldi	r24, 0x01	; 1
    123a:	80 93 02 02 	sts	0x0202, r24	; 0x800202 <pneumatic_geneva_start>
			pneumatic_geneva_time = millis();
    123e:	cf d8       	rcall	.-3682   	; 0x3de <_Z6millisv>
    1240:	60 93 49 02 	sts	0x0249, r22	; 0x800249 <pneumatic_geneva_time>
    1244:	70 93 4a 02 	sts	0x024A, r23	; 0x80024a <pneumatic_geneva_time+0x1>
    1248:	80 93 4b 02 	sts	0x024B, r24	; 0x80024b <pneumatic_geneva_time+0x2>
    124c:	90 93 4c 02 	sts	0x024C, r25	; 0x80024c <pneumatic_geneva_time+0x3>
			SHUTTCOCK_GRIP_TOGGLE();
    1250:	92 b1       	in	r25, 0x02	; 2
    1252:	84 e0       	ldi	r24, 0x04	; 4
    1254:	89 27       	eor	r24, r25
    1256:	82 b9       	out	0x02, r24	; 2
    1258:	01 c0       	rjmp	.+2      	; 0x125c <_Z21operate_master_manualv+0x17a>
		}
		else
		{
			SHUTTCOCK_GRIP_CLOSE();
    125a:	12 98       	cbi	0x02, 2	; 2
		}
		
		pass_the_shuttcock = true;
    125c:	c1 e0       	ldi	r28, 0x01	; 1
    125e:	c0 93 00 02 	sts	0x0200, r28	; 0x800200 <_edata>
		passing_time = millis();
    1262:	bd d8       	rcall	.-3718   	; 0x3de <_Z6millisv>
    1264:	60 93 45 02 	sts	0x0245, r22	; 0x800245 <passing_time>
    1268:	70 93 46 02 	sts	0x0246, r23	; 0x800246 <passing_time+0x1>
    126c:	80 93 47 02 	sts	0x0247, r24	; 0x800247 <passing_time+0x2>
    1270:	90 93 48 02 	sts	0x0248, r25	; 0x800248 <passing_time+0x3>
		inside_robot = (1^inside_robot);
    1274:	80 91 01 02 	lds	r24, 0x0201	; 0x800201 <inside_robot>
    1278:	c8 27       	eor	r28, r24
    127a:	c0 93 01 02 	sts	0x0201, r28	; 0x800201 <inside_robot>
		GAMEBUTTONA = 0;
    127e:	10 92 89 02 	sts	0x0289, r1	; 0x800289 <rcvdata>

	
	

	/**************************************************Rack Operation******************************************************/
	if (!auto_move_rack)
    1282:	80 91 08 02 	lds	r24, 0x0208	; 0x800208 <auto_move_rack>
    1286:	81 11       	cpse	r24, r1
    1288:	0d c0       	rjmp	.+26     	; 0x12a4 <_Z21operate_master_manualv+0x1c2>
	{
		if (RIGHTTRIGGER > 20 && READ(LTSWITCH_RACK_HOME))
    128a:	80 91 8b 02 	lds	r24, 0x028B	; 0x80028b <rcvdata+0x2>
    128e:	85 31       	cpi	r24, 0x15	; 21
    1290:	08 f4       	brcc	.+2      	; 0x1294 <_Z21operate_master_manualv+0x1b2>
    1292:	ae c0       	rjmp	.+348    	; 0x13f0 <_Z21operate_master_manualv+0x30e>
    1294:	1c 99       	sbic	0x03, 4	; 3
    1296:	a5 c0       	rjmp	.+330    	; 0x13e2 <_Z21operate_master_manualv+0x300>
    1298:	ab c0       	rjmp	.+342    	; 0x13f0 <_Z21operate_master_manualv+0x30e>
		{
			rack_motor_pid.Set_SP(RACK_COUNT);
		}
		else if (LEFTTRIGGER > 20 && READ(LTSWITCH_RACK_FINAL))
    129a:	80 91 00 01 	lds	r24, 0x0100	; 0x800100 <__TEXT_REGION_LENGTH__+0x700100>
    129e:	86 fd       	sbrc	r24, 6
    12a0:	ad c0       	rjmp	.+346    	; 0x13fc <_Z21operate_master_manualv+0x31a>
    12a2:	b3 c0       	rjmp	.+358    	; 0x140a <_Z21operate_master_manualv+0x328>
		else
			rack_motor_pid.Set_SP(0);
	}
	
	/*********************************************************************Move using joystick analog stick********************************************/
	if ((abs(LEFTSTICKY-50) > 5) || (abs(LEFTSTICKX-50) > 5) || abs(RIGHTSTICKX-50)>5)
    12a4:	80 91 8e 02 	lds	r24, 0x028E	; 0x80028e <rcvdata+0x5>
    12a8:	90 e0       	ldi	r25, 0x00	; 0
    12aa:	9c 01       	movw	r18, r24
    12ac:	22 53       	subi	r18, 0x32	; 50
    12ae:	31 09       	sbc	r19, r1
    12b0:	12 16       	cp	r1, r18
    12b2:	13 06       	cpc	r1, r19
    12b4:	24 f4       	brge	.+8      	; 0x12be <_Z21operate_master_manualv+0x1dc>
    12b6:	26 30       	cpi	r18, 0x06	; 6
    12b8:	31 05       	cpc	r19, r1
    12ba:	44 f0       	brlt	.+16     	; 0x12cc <_Z21operate_master_manualv+0x1ea>
    12bc:	32 c0       	rjmp	.+100    	; 0x1322 <_Z21operate_master_manualv+0x240>
    12be:	42 e3       	ldi	r20, 0x32	; 50
    12c0:	50 e0       	ldi	r21, 0x00	; 0
    12c2:	fa 01       	movw	r30, r20
    12c4:	e8 1b       	sub	r30, r24
    12c6:	f9 0b       	sbc	r31, r25
    12c8:	36 97       	sbiw	r30, 0x06	; 6
    12ca:	5c f5       	brge	.+86     	; 0x1322 <_Z21operate_master_manualv+0x240>
    12cc:	80 91 8d 02 	lds	r24, 0x028D	; 0x80028d <rcvdata+0x4>
    12d0:	90 e0       	ldi	r25, 0x00	; 0
    12d2:	ac 01       	movw	r20, r24
    12d4:	42 53       	subi	r20, 0x32	; 50
    12d6:	51 09       	sbc	r21, r1
    12d8:	14 16       	cp	r1, r20
    12da:	15 06       	cpc	r1, r21
    12dc:	24 f4       	brge	.+8      	; 0x12e6 <_Z21operate_master_manualv+0x204>
    12de:	46 30       	cpi	r20, 0x06	; 6
    12e0:	51 05       	cpc	r21, r1
    12e2:	4c f0       	brlt	.+18     	; 0x12f6 <_Z21operate_master_manualv+0x214>
    12e4:	1e c0       	rjmp	.+60     	; 0x1322 <_Z21operate_master_manualv+0x240>
    12e6:	42 e3       	ldi	r20, 0x32	; 50
    12e8:	50 e0       	ldi	r21, 0x00	; 0
    12ea:	ba 01       	movw	r22, r20
    12ec:	68 1b       	sub	r22, r24
    12ee:	79 0b       	sbc	r23, r25
    12f0:	66 30       	cpi	r22, 0x06	; 6
    12f2:	71 05       	cpc	r23, r1
    12f4:	b4 f4       	brge	.+44     	; 0x1322 <_Z21operate_master_manualv+0x240>
    12f6:	80 91 8f 02 	lds	r24, 0x028F	; 0x80028f <rcvdata+0x6>
    12fa:	90 e0       	ldi	r25, 0x00	; 0
    12fc:	ac 01       	movw	r20, r24
    12fe:	42 53       	subi	r20, 0x32	; 50
    1300:	51 09       	sbc	r21, r1
    1302:	14 16       	cp	r1, r20
    1304:	15 06       	cpc	r1, r21
    1306:	2c f4       	brge	.+10     	; 0x1312 <_Z21operate_master_manualv+0x230>
    1308:	46 30       	cpi	r20, 0x06	; 6
    130a:	51 05       	cpc	r21, r1
    130c:	0c f4       	brge	.+2      	; 0x1310 <_Z21operate_master_manualv+0x22e>
    130e:	63 c0       	rjmp	.+198    	; 0x13d6 <_Z21operate_master_manualv+0x2f4>
    1310:	08 c0       	rjmp	.+16     	; 0x1322 <_Z21operate_master_manualv+0x240>
    1312:	42 e3       	ldi	r20, 0x32	; 50
    1314:	50 e0       	ldi	r21, 0x00	; 0
    1316:	fa 01       	movw	r30, r20
    1318:	e8 1b       	sub	r30, r24
    131a:	f9 0b       	sbc	r31, r25
    131c:	36 97       	sbiw	r30, 0x06	; 6
    131e:	0c f4       	brge	.+2      	; 0x1322 <_Z21operate_master_manualv+0x240>
    1320:	5a c0       	rjmp	.+180    	; 0x13d6 <_Z21operate_master_manualv+0x2f4>
	{
		rampupflag_start = true;
    1322:	81 e0       	ldi	r24, 0x01	; 1
    1324:	80 93 7a 02 	sts	0x027A, r24	; 0x80027a <rampupflag_start>
		velocity_robot[0] = (LEFTSTICKY-50)*timer_count/60.0 + 50;
    1328:	40 91 7b 02 	lds	r20, 0x027B	; 0x80027b <timer_count>
    132c:	c2 e8       	ldi	r28, 0x82	; 130
    132e:	d2 e0       	ldi	r29, 0x02	; 2
    1330:	42 03       	mulsu	r20, r18
    1332:	b0 01       	movw	r22, r0
    1334:	43 9f       	mul	r20, r19
    1336:	70 0d       	add	r23, r0
    1338:	11 24       	eor	r1, r1
    133a:	07 2e       	mov	r0, r23
    133c:	00 0c       	add	r0, r0
    133e:	88 0b       	sbc	r24, r24
    1340:	99 0b       	sbc	r25, r25
    1342:	89 d2       	rcall	.+1298   	; 0x1856 <__floatsisf>
    1344:	20 e0       	ldi	r18, 0x00	; 0
    1346:	30 e0       	ldi	r19, 0x00	; 0
    1348:	40 e7       	ldi	r20, 0x70	; 112
    134a:	52 e4       	ldi	r21, 0x42	; 66
    134c:	e9 d1       	rcall	.+978    	; 0x1720 <__divsf3>
    134e:	20 e0       	ldi	r18, 0x00	; 0
    1350:	30 e0       	ldi	r19, 0x00	; 0
    1352:	48 e4       	ldi	r20, 0x48	; 72
    1354:	52 e4       	ldi	r21, 0x42	; 66
    1356:	7c d1       	rcall	.+760    	; 0x1650 <__addsf3>
    1358:	50 d2       	rcall	.+1184   	; 0x17fa <__fixunssfsi>
    135a:	68 83       	st	Y, r22
		velocity_robot[1] = (LEFTSTICKX-50)*timer_count/60.0 + 50;
    135c:	40 91 7b 02 	lds	r20, 0x027B	; 0x80027b <timer_count>
    1360:	09 e8       	ldi	r16, 0x89	; 137
    1362:	12 e0       	ldi	r17, 0x02	; 2
    1364:	f8 01       	movw	r30, r16
    1366:	24 81       	ldd	r18, Z+4	; 0x04
    1368:	30 e0       	ldi	r19, 0x00	; 0
    136a:	22 53       	subi	r18, 0x32	; 50
    136c:	31 09       	sbc	r19, r1
    136e:	42 03       	mulsu	r20, r18
    1370:	b0 01       	movw	r22, r0
    1372:	43 9f       	mul	r20, r19
    1374:	70 0d       	add	r23, r0
    1376:	11 24       	eor	r1, r1
    1378:	07 2e       	mov	r0, r23
    137a:	00 0c       	add	r0, r0
    137c:	88 0b       	sbc	r24, r24
    137e:	99 0b       	sbc	r25, r25
    1380:	6a d2       	rcall	.+1236   	; 0x1856 <__floatsisf>
    1382:	20 e0       	ldi	r18, 0x00	; 0
    1384:	30 e0       	ldi	r19, 0x00	; 0
    1386:	40 e7       	ldi	r20, 0x70	; 112
    1388:	52 e4       	ldi	r21, 0x42	; 66
    138a:	ca d1       	rcall	.+916    	; 0x1720 <__divsf3>
    138c:	20 e0       	ldi	r18, 0x00	; 0
    138e:	30 e0       	ldi	r19, 0x00	; 0
    1390:	48 e4       	ldi	r20, 0x48	; 72
    1392:	52 e4       	ldi	r21, 0x42	; 66
    1394:	5d d1       	rcall	.+698    	; 0x1650 <__addsf3>
    1396:	31 d2       	rcall	.+1122   	; 0x17fa <__fixunssfsi>
    1398:	69 83       	std	Y+1, r22	; 0x01
		velocity_robot[2] = (RIGHTSTICKX-50)*timer_count/60.0 + 50;
    139a:	40 91 7b 02 	lds	r20, 0x027B	; 0x80027b <timer_count>
    139e:	f8 01       	movw	r30, r16
    13a0:	26 81       	ldd	r18, Z+6	; 0x06
    13a2:	30 e0       	ldi	r19, 0x00	; 0
    13a4:	22 53       	subi	r18, 0x32	; 50
    13a6:	31 09       	sbc	r19, r1
    13a8:	42 03       	mulsu	r20, r18
    13aa:	b0 01       	movw	r22, r0
    13ac:	43 9f       	mul	r20, r19
    13ae:	70 0d       	add	r23, r0
    13b0:	11 24       	eor	r1, r1
    13b2:	07 2e       	mov	r0, r23
    13b4:	00 0c       	add	r0, r0
    13b6:	88 0b       	sbc	r24, r24
    13b8:	99 0b       	sbc	r25, r25
    13ba:	4d d2       	rcall	.+1178   	; 0x1856 <__floatsisf>
    13bc:	20 e0       	ldi	r18, 0x00	; 0
    13be:	30 e0       	ldi	r19, 0x00	; 0
    13c0:	40 e7       	ldi	r20, 0x70	; 112
    13c2:	52 e4       	ldi	r21, 0x42	; 66
    13c4:	ad d1       	rcall	.+858    	; 0x1720 <__divsf3>
    13c6:	20 e0       	ldi	r18, 0x00	; 0
    13c8:	30 e0       	ldi	r19, 0x00	; 0
    13ca:	48 e4       	ldi	r20, 0x48	; 72
    13cc:	52 e4       	ldi	r21, 0x42	; 66
    13ce:	40 d1       	rcall	.+640    	; 0x1650 <__addsf3>
	}
	else
	rampupflag_start = false;
    13d0:	14 d2       	rcall	.+1064   	; 0x17fa <__fixunssfsi>
    13d2:	6a 83       	std	Y+2, r22	; 0x02
	
	operation_of_rack();	
    13d4:	02 c0       	rjmp	.+4      	; 0x13da <_Z21operate_master_manualv+0x2f8>
    13d6:	10 92 7a 02 	sts	0x027A, r1	; 0x80027a <rampupflag_start>
	rack_limit_check();
    13da:	2d db       	rcall	.-2470   	; 0xa36 <_Z17operation_of_rackv>
	orientation_check();
    13dc:	a2 d8       	rcall	.-3772   	; 0x522 <_Z16rack_limit_checkv>
    13de:	16 dd       	rcall	.-1492   	; 0xe0c <_Z17orientation_checkv>

}
    13e0:	19 c0       	rjmp	.+50     	; 0x1414 <_Z21operate_master_manualv+0x332>
    13e2:	83 e0       	ldi	r24, 0x03	; 3
    13e4:	90 e0       	ldi	r25, 0x00	; 0
    13e6:	90 93 20 02 	sts	0x0220, r25	; 0x800220 <rack_motor_pid+0xd>
    13ea:	80 93 1f 02 	sts	0x021F, r24	; 0x80021f <rack_motor_pid+0xc>
    13ee:	5a cf       	rjmp	.-332    	; 0x12a4 <_Z21operate_master_manualv+0x1c2>
	{
		if (RIGHTTRIGGER > 20 && READ(LTSWITCH_RACK_HOME))
		{
			rack_motor_pid.Set_SP(RACK_COUNT);
		}
		else if (LEFTTRIGGER > 20 && READ(LTSWITCH_RACK_FINAL))
    13f0:	80 91 8c 02 	lds	r24, 0x028C	; 0x80028c <rcvdata+0x3>
    13f4:	85 31       	cpi	r24, 0x15	; 21
    13f6:	08 f0       	brcs	.+2      	; 0x13fa <_Z21operate_master_manualv+0x318>
    13f8:	50 cf       	rjmp	.-352    	; 0x129a <_Z21operate_master_manualv+0x1b8>
    13fa:	07 c0       	rjmp	.+14     	; 0x140a <_Z21operate_master_manualv+0x328>
    13fc:	8d ef       	ldi	r24, 0xFD	; 253
    13fe:	9f ef       	ldi	r25, 0xFF	; 255
    1400:	90 93 20 02 	sts	0x0220, r25	; 0x800220 <rack_motor_pid+0xd>
    1404:	80 93 1f 02 	sts	0x021F, r24	; 0x80021f <rack_motor_pid+0xc>
    1408:	4d cf       	rjmp	.-358    	; 0x12a4 <_Z21operate_master_manualv+0x1c2>
    140a:	10 92 20 02 	sts	0x0220, r1	; 0x800220 <rack_motor_pid+0xd>
    140e:	10 92 1f 02 	sts	0x021F, r1	; 0x80021f <rack_motor_pid+0xc>
    1412:	48 cf       	rjmp	.-368    	; 0x12a4 <_Z21operate_master_manualv+0x1c2>
	
	operation_of_rack();	
	rack_limit_check();
	orientation_check();

}
    1414:	df 91       	pop	r29
    1416:	cf 91       	pop	r28
    1418:	1f 91       	pop	r17
    141a:	0f 91       	pop	r16
    141c:	08 95       	ret

0000141e <__vector_21>:
//Global timer interrupt

/***********************************Ramping from the joystick analog button*************************************/

ISR(TIMER0_COMPA_vect)
{
    141e:	1f 92       	push	r1
    1420:	0f 92       	push	r0
    1422:	0f b6       	in	r0, 0x3f	; 63
    1424:	0f 92       	push	r0
    1426:	11 24       	eor	r1, r1
    1428:	8f 93       	push	r24
	if (rampupflag_start)
    142a:	80 91 7a 02 	lds	r24, 0x027A	; 0x80027a <rampupflag_start>
    142e:	88 23       	and	r24, r24
    1430:	31 f0       	breq	.+12     	; 0x143e <__vector_21+0x20>
	timer_count++;
    1432:	80 91 7b 02 	lds	r24, 0x027B	; 0x80027b <timer_count>
    1436:	8f 5f       	subi	r24, 0xFF	; 255
    1438:	80 93 7b 02 	sts	0x027B, r24	; 0x80027b <timer_count>
    143c:	02 c0       	rjmp	.+4      	; 0x1442 <__vector_21+0x24>
	else
	timer_count = 0;
    143e:	10 92 7b 02 	sts	0x027B, r1	; 0x80027b <timer_count>
	
	if (timer_count > 60)
    1442:	80 91 7b 02 	lds	r24, 0x027B	; 0x80027b <timer_count>
    1446:	8d 33       	cpi	r24, 0x3D	; 61
    1448:	1c f0       	brlt	.+6      	; 0x1450 <__vector_21+0x32>
	timer_count = 60;
    144a:	8c e3       	ldi	r24, 0x3C	; 60
    144c:	80 93 7b 02 	sts	0x027B, r24	; 0x80027b <timer_count>
	

}
    1450:	8f 91       	pop	r24
    1452:	0f 90       	pop	r0
    1454:	0f be       	out	0x3f, r0	; 63
    1456:	0f 90       	pop	r0
    1458:	1f 90       	pop	r1
    145a:	18 95       	reti

0000145c <__vector_6>:

/**********************************************************PROXIMITY_INTERRUPT***********************************************************************/
ISR(PROXIMITY_VECT)
{
    145c:	1f 92       	push	r1
    145e:	0f 92       	push	r0
    1460:	0f b6       	in	r0, 0x3f	; 63
    1462:	0f 92       	push	r0
    1464:	11 24       	eor	r1, r1
    1466:	0b b6       	in	r0, 0x3b	; 59
    1468:	0f 92       	push	r0
    146a:	8f 93       	push	r24
    146c:	9f 93       	push	r25
    146e:	ef 93       	push	r30
    1470:	ff 93       	push	r31
	//pcint for slave on to stop the robot
	TOGGLE(STOP_SLAVE);
    1472:	eb e0       	ldi	r30, 0x0B	; 11
    1474:	f1 e0       	ldi	r31, 0x01	; 1
    1476:	90 81       	ld	r25, Z
    1478:	84 e0       	ldi	r24, 0x04	; 4
    147a:	89 27       	eor	r24, r25
    147c:	80 83       	st	Z, r24
}
    147e:	ff 91       	pop	r31
    1480:	ef 91       	pop	r30
    1482:	9f 91       	pop	r25
    1484:	8f 91       	pop	r24
    1486:	0f 90       	pop	r0
    1488:	0b be       	out	0x3b, r0	; 59
    148a:	0f 90       	pop	r0
    148c:	0f be       	out	0x3f, r0	; 63
    148e:	0f 90       	pop	r0
    1490:	1f 90       	pop	r1
    1492:	18 95       	reti

00001494 <__vector_3>:

ISR(GOLDENEYE_VECT)
{
    1494:	1f 92       	push	r1
    1496:	0f 92       	push	r0
    1498:	0f b6       	in	r0, 0x3f	; 63
    149a:	0f 92       	push	r0
    149c:	11 24       	eor	r1, r1
    149e:	0b b6       	in	r0, 0x3b	; 59
    14a0:	0f 92       	push	r0
    14a2:	2f 93       	push	r18
    14a4:	3f 93       	push	r19
    14a6:	4f 93       	push	r20
    14a8:	5f 93       	push	r21
    14aa:	6f 93       	push	r22
    14ac:	7f 93       	push	r23
    14ae:	8f 93       	push	r24
    14b0:	9f 93       	push	r25
    14b2:	af 93       	push	r26
    14b4:	bf 93       	push	r27
    14b6:	ef 93       	push	r30
    14b8:	ff 93       	push	r31
	RACK_GRIP_OPEN();
    14ba:	10 98       	cbi	0x02, 0	; 2
	TOGGLE(STOP_SLAVE);
    14bc:	eb e0       	ldi	r30, 0x0B	; 11
    14be:	f1 e0       	ldi	r31, 0x01	; 1
    14c0:	90 81       	ld	r25, Z
    14c2:	84 e0       	ldi	r24, 0x04	; 4
    14c4:	89 27       	eor	r24, r25
    14c6:	80 83       	st	Z, r24
	disable_golden_eye();
    14c8:	0e 94 ec 01 	call	0x3d8	; 0x3d8 <_Z18disable_golden_eyev>
}
    14cc:	ff 91       	pop	r31
    14ce:	ef 91       	pop	r30
    14d0:	bf 91       	pop	r27
    14d2:	af 91       	pop	r26
    14d4:	9f 91       	pop	r25
    14d6:	8f 91       	pop	r24
    14d8:	7f 91       	pop	r23
    14da:	6f 91       	pop	r22
    14dc:	5f 91       	pop	r21
    14de:	4f 91       	pop	r20
    14e0:	3f 91       	pop	r19
    14e2:	2f 91       	pop	r18
    14e4:	0f 90       	pop	r0
    14e6:	0b be       	out	0x3b, r0	; 59
    14e8:	0f 90       	pop	r0
    14ea:	0f be       	out	0x3f, r0	; 63
    14ec:	0f 90       	pop	r0
    14ee:	1f 90       	pop	r1
    14f0:	18 95       	reti

000014f2 <_Z9initUART0v>:

void UART3TransmitString(const char *s)
{
	while(*s)
	UART3Transmit(*s++);
}
    14f2:	10 92 c5 00 	sts	0x00C5, r1	; 0x8000c5 <__TEXT_REGION_LENGTH__+0x7000c5>
    14f6:	87 e6       	ldi	r24, 0x67	; 103
    14f8:	80 93 c4 00 	sts	0x00C4, r24	; 0x8000c4 <__TEXT_REGION_LENGTH__+0x7000c4>
    14fc:	88 e9       	ldi	r24, 0x98	; 152
    14fe:	80 93 c1 00 	sts	0x00C1, r24	; 0x8000c1 <__TEXT_REGION_LENGTH__+0x7000c1>
    1502:	86 e0       	ldi	r24, 0x06	; 6
    1504:	80 93 c2 00 	sts	0x00C2, r24	; 0x8000c2 <__TEXT_REGION_LENGTH__+0x7000c2>
    1508:	08 95       	ret

0000150a <_Z9initUART2v>:
    150a:	10 92 87 02 	sts	0x0287, r1	; 0x800287 <_ZL9datacount>
    150e:	e9 e8       	ldi	r30, 0x89	; 137
    1510:	f2 e0       	ldi	r31, 0x02	; 2
    1512:	10 82       	st	Z, r1
    1514:	11 82       	std	Z+1, r1	; 0x01
    1516:	12 82       	std	Z+2, r1	; 0x02
    1518:	13 82       	std	Z+3, r1	; 0x03
    151a:	82 e3       	ldi	r24, 0x32	; 50
    151c:	84 83       	std	Z+4, r24	; 0x04
    151e:	85 83       	std	Z+5, r24	; 0x05
    1520:	86 83       	std	Z+6, r24	; 0x06
    1522:	87 83       	std	Z+7, r24	; 0x07
    1524:	10 92 d5 00 	sts	0x00D5, r1	; 0x8000d5 <__TEXT_REGION_LENGTH__+0x7000d5>
    1528:	89 e1       	ldi	r24, 0x19	; 25
    152a:	80 93 d4 00 	sts	0x00D4, r24	; 0x8000d4 <__TEXT_REGION_LENGTH__+0x7000d4>
    152e:	88 e9       	ldi	r24, 0x98	; 152
    1530:	80 93 d1 00 	sts	0x00D1, r24	; 0x8000d1 <__TEXT_REGION_LENGTH__+0x7000d1>
    1534:	86 e0       	ldi	r24, 0x06	; 6
    1536:	80 93 d2 00 	sts	0x00D2, r24	; 0x8000d2 <__TEXT_REGION_LENGTH__+0x7000d2>
    153a:	08 95       	ret

0000153c <_Z9initUART3v>:
    153c:	10 92 88 02 	sts	0x0288, r1	; 0x800288 <rcv_value_slave>
    1540:	10 92 35 01 	sts	0x0135, r1	; 0x800135 <__TEXT_REGION_LENGTH__+0x700135>
    1544:	89 e1       	ldi	r24, 0x19	; 25
    1546:	80 93 34 01 	sts	0x0134, r24	; 0x800134 <__TEXT_REGION_LENGTH__+0x700134>
    154a:	88 e9       	ldi	r24, 0x98	; 152
    154c:	80 93 31 01 	sts	0x0131, r24	; 0x800131 <__TEXT_REGION_LENGTH__+0x700131>
    1550:	86 e0       	ldi	r24, 0x06	; 6
    1552:	80 93 32 01 	sts	0x0132, r24	; 0x800132 <__TEXT_REGION_LENGTH__+0x700132>
    1556:	08 95       	ret

00001558 <_Z13UART3Transmith>:
    1558:	e0 e3       	ldi	r30, 0x30	; 48
    155a:	f1 e0       	ldi	r31, 0x01	; 1
    155c:	90 81       	ld	r25, Z
    155e:	95 ff       	sbrs	r25, 5
    1560:	fd cf       	rjmp	.-6      	; 0x155c <_Z13UART3Transmith+0x4>
    1562:	80 93 36 01 	sts	0x0136, r24	; 0x800136 <__TEXT_REGION_LENGTH__+0x700136>
    1566:	08 95       	ret

00001568 <__vector_25>:

ISR(USART0_RX_vect)
{
    1568:	1f 92       	push	r1
    156a:	0f 92       	push	r0
    156c:	0f b6       	in	r0, 0x3f	; 63
    156e:	0f 92       	push	r0
    1570:	11 24       	eor	r1, r1
    1572:	8f 93       	push	r24
	buffer=UDR0;
    1574:	80 91 c6 00 	lds	r24, 0x00C6	; 0x8000c6 <__TEXT_REGION_LENGTH__+0x7000c6>
    1578:	80 93 94 02 	sts	0x0294, r24	; 0x800294 <buffer>
}
    157c:	8f 91       	pop	r24
    157e:	0f 90       	pop	r0
    1580:	0f be       	out	0x3f, r0	; 63
    1582:	0f 90       	pop	r0
    1584:	1f 90       	pop	r1
    1586:	18 95       	reti

00001588 <__vector_36>:

ISR(USART1_RX_vect)
{
    1588:	1f 92       	push	r1
    158a:	0f 92       	push	r0
    158c:	0f b6       	in	r0, 0x3f	; 63
    158e:	0f 92       	push	r0
    1590:	11 24       	eor	r1, r1
    1592:	8f 93       	push	r24
	buffer1=UDR1;
    1594:	80 91 ce 00 	lds	r24, 0x00CE	; 0x8000ce <__TEXT_REGION_LENGTH__+0x7000ce>
    1598:	80 93 93 02 	sts	0x0293, r24	; 0x800293 <buffer1>
	
}
    159c:	8f 91       	pop	r24
    159e:	0f 90       	pop	r0
    15a0:	0f be       	out	0x3f, r0	; 63
    15a2:	0f 90       	pop	r0
    15a4:	1f 90       	pop	r1
    15a6:	18 95       	reti

000015a8 <__vector_51>:

ISR(USART2_RX_vect)
{
    15a8:	1f 92       	push	r1
    15aa:	0f 92       	push	r0
    15ac:	0f b6       	in	r0, 0x3f	; 63
    15ae:	0f 92       	push	r0
    15b0:	11 24       	eor	r1, r1
    15b2:	0b b6       	in	r0, 0x3b	; 59
    15b4:	0f 92       	push	r0
    15b6:	8f 93       	push	r24
    15b8:	9f 93       	push	r25
    15ba:	ef 93       	push	r30
    15bc:	ff 93       	push	r31
	buffer2=UDR2;
    15be:	80 91 d6 00 	lds	r24, 0x00D6	; 0x8000d6 <__TEXT_REGION_LENGTH__+0x7000d6>
    15c2:	80 93 91 02 	sts	0x0291, r24	; 0x800291 <buffer2>
		if(rcvflag)
    15c6:	90 91 86 02 	lds	r25, 0x0286	; 0x800286 <rcvflag>
    15ca:	99 23       	and	r25, r25
    15cc:	89 f0       	breq	.+34     	; 0x15f0 <__vector_51+0x48>
		{
			rcvdata[datacount] = buffer2;
    15ce:	90 91 87 02 	lds	r25, 0x0287	; 0x800287 <_ZL9datacount>
    15d2:	e9 2f       	mov	r30, r25
    15d4:	f0 e0       	ldi	r31, 0x00	; 0
    15d6:	e7 57       	subi	r30, 0x77	; 119
    15d8:	fd 4f       	sbci	r31, 0xFD	; 253
    15da:	80 83       	st	Z, r24
			datacount++;
    15dc:	9f 5f       	subi	r25, 0xFF	; 255
			if(datacount>7)
    15de:	98 30       	cpi	r25, 0x08	; 8
    15e0:	18 f4       	brcc	.+6      	; 0x15e8 <__vector_51+0x40>
{
	buffer2=UDR2;
		if(rcvflag)
		{
			rcvdata[datacount] = buffer2;
			datacount++;
    15e2:	90 93 87 02 	sts	0x0287, r25	; 0x800287 <_ZL9datacount>
    15e6:	04 c0       	rjmp	.+8      	; 0x15f0 <__vector_51+0x48>
			if(datacount>7)
			{
				 datacount=0;
    15e8:	10 92 87 02 	sts	0x0287, r1	; 0x800287 <_ZL9datacount>
				rcvflag = false; 
    15ec:	10 92 86 02 	sts	0x0286, r1	; 0x800286 <rcvflag>
			}
		}
		if(buffer2==START_BYTE)
    15f0:	8f 37       	cpi	r24, 0x7F	; 127
    15f2:	19 f4       	brne	.+6      	; 0x15fa <__vector_51+0x52>
			rcvflag=true;
    15f4:	81 e0       	ldi	r24, 0x01	; 1
    15f6:	80 93 86 02 	sts	0x0286, r24	; 0x800286 <rcvflag>
		
}
    15fa:	ff 91       	pop	r31
    15fc:	ef 91       	pop	r30
    15fe:	9f 91       	pop	r25
    1600:	8f 91       	pop	r24
    1602:	0f 90       	pop	r0
    1604:	0b be       	out	0x3b, r0	; 59
    1606:	0f 90       	pop	r0
    1608:	0f be       	out	0x3f, r0	; 63
    160a:	0f 90       	pop	r0
    160c:	1f 90       	pop	r1
    160e:	18 95       	reti

00001610 <__vector_54>:


ISR(USART3_RX_vect)
{
    1610:	1f 92       	push	r1
    1612:	0f 92       	push	r0
    1614:	0f b6       	in	r0, 0x3f	; 63
    1616:	0f 92       	push	r0
    1618:	11 24       	eor	r1, r1
    161a:	8f 93       	push	r24
    161c:	9f 93       	push	r25
	buffer3=UDR3;
    161e:	80 91 36 01 	lds	r24, 0x0136	; 0x800136 <__TEXT_REGION_LENGTH__+0x700136>
    1622:	80 93 92 02 	sts	0x0292, r24	; 0x800292 <buffer3>
	
	if(rcv_slave_flag)
    1626:	90 91 85 02 	lds	r25, 0x0285	; 0x800285 <rcv_slave_flag>
    162a:	99 23       	and	r25, r25
    162c:	21 f0       	breq	.+8      	; 0x1636 <__vector_54+0x26>
	{
		rcv_value_slave = buffer3;
    162e:	80 93 88 02 	sts	0x0288, r24	; 0x800288 <rcv_value_slave>
		rcv_slave_flag = false;
    1632:	10 92 85 02 	sts	0x0285, r1	; 0x800285 <rcv_slave_flag>
	}
	if(buffer3 == START_BYTE_MASTER)
    1636:	8c 3f       	cpi	r24, 0xFC	; 252
    1638:	19 f4       	brne	.+6      	; 0x1640 <__vector_54+0x30>
		rcv_slave_flag = true;
    163a:	81 e0       	ldi	r24, 0x01	; 1
    163c:	80 93 85 02 	sts	0x0285, r24	; 0x800285 <rcv_slave_flag>
}
    1640:	9f 91       	pop	r25
    1642:	8f 91       	pop	r24
    1644:	0f 90       	pop	r0
    1646:	0f be       	out	0x3f, r0	; 63
    1648:	0f 90       	pop	r0
    164a:	1f 90       	pop	r1
    164c:	18 95       	reti

0000164e <__subsf3>:
    164e:	50 58       	subi	r21, 0x80	; 128

00001650 <__addsf3>:
    1650:	bb 27       	eor	r27, r27
    1652:	aa 27       	eor	r26, r26
    1654:	0e d0       	rcall	.+28     	; 0x1672 <__addsf3x>
    1656:	75 c1       	rjmp	.+746    	; 0x1942 <__fp_round>
    1658:	66 d1       	rcall	.+716    	; 0x1926 <__fp_pscA>
    165a:	30 f0       	brcs	.+12     	; 0x1668 <__addsf3+0x18>
    165c:	6b d1       	rcall	.+726    	; 0x1934 <__fp_pscB>
    165e:	20 f0       	brcs	.+8      	; 0x1668 <__addsf3+0x18>
    1660:	31 f4       	brne	.+12     	; 0x166e <__addsf3+0x1e>
    1662:	9f 3f       	cpi	r25, 0xFF	; 255
    1664:	11 f4       	brne	.+4      	; 0x166a <__addsf3+0x1a>
    1666:	1e f4       	brtc	.+6      	; 0x166e <__addsf3+0x1e>
    1668:	5b c1       	rjmp	.+694    	; 0x1920 <__fp_nan>
    166a:	0e f4       	brtc	.+2      	; 0x166e <__addsf3+0x1e>
    166c:	e0 95       	com	r30
    166e:	e7 fb       	bst	r30, 7
    1670:	51 c1       	rjmp	.+674    	; 0x1914 <__fp_inf>

00001672 <__addsf3x>:
    1672:	e9 2f       	mov	r30, r25
    1674:	77 d1       	rcall	.+750    	; 0x1964 <__fp_split3>
    1676:	80 f3       	brcs	.-32     	; 0x1658 <__addsf3+0x8>
    1678:	ba 17       	cp	r27, r26
    167a:	62 07       	cpc	r22, r18
    167c:	73 07       	cpc	r23, r19
    167e:	84 07       	cpc	r24, r20
    1680:	95 07       	cpc	r25, r21
    1682:	18 f0       	brcs	.+6      	; 0x168a <__addsf3x+0x18>
    1684:	71 f4       	brne	.+28     	; 0x16a2 <__addsf3x+0x30>
    1686:	9e f5       	brtc	.+102    	; 0x16ee <__addsf3x+0x7c>
    1688:	8f c1       	rjmp	.+798    	; 0x19a8 <__fp_zero>
    168a:	0e f4       	brtc	.+2      	; 0x168e <__addsf3x+0x1c>
    168c:	e0 95       	com	r30
    168e:	0b 2e       	mov	r0, r27
    1690:	ba 2f       	mov	r27, r26
    1692:	a0 2d       	mov	r26, r0
    1694:	0b 01       	movw	r0, r22
    1696:	b9 01       	movw	r22, r18
    1698:	90 01       	movw	r18, r0
    169a:	0c 01       	movw	r0, r24
    169c:	ca 01       	movw	r24, r20
    169e:	a0 01       	movw	r20, r0
    16a0:	11 24       	eor	r1, r1
    16a2:	ff 27       	eor	r31, r31
    16a4:	59 1b       	sub	r21, r25
    16a6:	99 f0       	breq	.+38     	; 0x16ce <__addsf3x+0x5c>
    16a8:	59 3f       	cpi	r21, 0xF9	; 249
    16aa:	50 f4       	brcc	.+20     	; 0x16c0 <__addsf3x+0x4e>
    16ac:	50 3e       	cpi	r21, 0xE0	; 224
    16ae:	68 f1       	brcs	.+90     	; 0x170a <__addsf3x+0x98>
    16b0:	1a 16       	cp	r1, r26
    16b2:	f0 40       	sbci	r31, 0x00	; 0
    16b4:	a2 2f       	mov	r26, r18
    16b6:	23 2f       	mov	r18, r19
    16b8:	34 2f       	mov	r19, r20
    16ba:	44 27       	eor	r20, r20
    16bc:	58 5f       	subi	r21, 0xF8	; 248
    16be:	f3 cf       	rjmp	.-26     	; 0x16a6 <__addsf3x+0x34>
    16c0:	46 95       	lsr	r20
    16c2:	37 95       	ror	r19
    16c4:	27 95       	ror	r18
    16c6:	a7 95       	ror	r26
    16c8:	f0 40       	sbci	r31, 0x00	; 0
    16ca:	53 95       	inc	r21
    16cc:	c9 f7       	brne	.-14     	; 0x16c0 <__addsf3x+0x4e>
    16ce:	7e f4       	brtc	.+30     	; 0x16ee <__addsf3x+0x7c>
    16d0:	1f 16       	cp	r1, r31
    16d2:	ba 0b       	sbc	r27, r26
    16d4:	62 0b       	sbc	r22, r18
    16d6:	73 0b       	sbc	r23, r19
    16d8:	84 0b       	sbc	r24, r20
    16da:	ba f0       	brmi	.+46     	; 0x170a <__addsf3x+0x98>
    16dc:	91 50       	subi	r25, 0x01	; 1
    16de:	a1 f0       	breq	.+40     	; 0x1708 <__addsf3x+0x96>
    16e0:	ff 0f       	add	r31, r31
    16e2:	bb 1f       	adc	r27, r27
    16e4:	66 1f       	adc	r22, r22
    16e6:	77 1f       	adc	r23, r23
    16e8:	88 1f       	adc	r24, r24
    16ea:	c2 f7       	brpl	.-16     	; 0x16dc <__addsf3x+0x6a>
    16ec:	0e c0       	rjmp	.+28     	; 0x170a <__addsf3x+0x98>
    16ee:	ba 0f       	add	r27, r26
    16f0:	62 1f       	adc	r22, r18
    16f2:	73 1f       	adc	r23, r19
    16f4:	84 1f       	adc	r24, r20
    16f6:	48 f4       	brcc	.+18     	; 0x170a <__addsf3x+0x98>
    16f8:	87 95       	ror	r24
    16fa:	77 95       	ror	r23
    16fc:	67 95       	ror	r22
    16fe:	b7 95       	ror	r27
    1700:	f7 95       	ror	r31
    1702:	9e 3f       	cpi	r25, 0xFE	; 254
    1704:	08 f0       	brcs	.+2      	; 0x1708 <__addsf3x+0x96>
    1706:	b3 cf       	rjmp	.-154    	; 0x166e <__addsf3+0x1e>
    1708:	93 95       	inc	r25
    170a:	88 0f       	add	r24, r24
    170c:	08 f0       	brcs	.+2      	; 0x1710 <__addsf3x+0x9e>
    170e:	99 27       	eor	r25, r25
    1710:	ee 0f       	add	r30, r30
    1712:	97 95       	ror	r25
    1714:	87 95       	ror	r24
    1716:	08 95       	ret

00001718 <__cmpsf2>:
    1718:	d9 d0       	rcall	.+434    	; 0x18cc <__fp_cmp>
    171a:	08 f4       	brcc	.+2      	; 0x171e <__cmpsf2+0x6>
    171c:	81 e0       	ldi	r24, 0x01	; 1
    171e:	08 95       	ret

00001720 <__divsf3>:
    1720:	0c d0       	rcall	.+24     	; 0x173a <__divsf3x>
    1722:	0f c1       	rjmp	.+542    	; 0x1942 <__fp_round>
    1724:	07 d1       	rcall	.+526    	; 0x1934 <__fp_pscB>
    1726:	40 f0       	brcs	.+16     	; 0x1738 <__divsf3+0x18>
    1728:	fe d0       	rcall	.+508    	; 0x1926 <__fp_pscA>
    172a:	30 f0       	brcs	.+12     	; 0x1738 <__divsf3+0x18>
    172c:	21 f4       	brne	.+8      	; 0x1736 <__divsf3+0x16>
    172e:	5f 3f       	cpi	r21, 0xFF	; 255
    1730:	19 f0       	breq	.+6      	; 0x1738 <__divsf3+0x18>
    1732:	f0 c0       	rjmp	.+480    	; 0x1914 <__fp_inf>
    1734:	51 11       	cpse	r21, r1
    1736:	39 c1       	rjmp	.+626    	; 0x19aa <__fp_szero>
    1738:	f3 c0       	rjmp	.+486    	; 0x1920 <__fp_nan>

0000173a <__divsf3x>:
    173a:	14 d1       	rcall	.+552    	; 0x1964 <__fp_split3>
    173c:	98 f3       	brcs	.-26     	; 0x1724 <__divsf3+0x4>

0000173e <__divsf3_pse>:
    173e:	99 23       	and	r25, r25
    1740:	c9 f3       	breq	.-14     	; 0x1734 <__divsf3+0x14>
    1742:	55 23       	and	r21, r21
    1744:	b1 f3       	breq	.-20     	; 0x1732 <__divsf3+0x12>
    1746:	95 1b       	sub	r25, r21
    1748:	55 0b       	sbc	r21, r21
    174a:	bb 27       	eor	r27, r27
    174c:	aa 27       	eor	r26, r26
    174e:	62 17       	cp	r22, r18
    1750:	73 07       	cpc	r23, r19
    1752:	84 07       	cpc	r24, r20
    1754:	38 f0       	brcs	.+14     	; 0x1764 <__divsf3_pse+0x26>
    1756:	9f 5f       	subi	r25, 0xFF	; 255
    1758:	5f 4f       	sbci	r21, 0xFF	; 255
    175a:	22 0f       	add	r18, r18
    175c:	33 1f       	adc	r19, r19
    175e:	44 1f       	adc	r20, r20
    1760:	aa 1f       	adc	r26, r26
    1762:	a9 f3       	breq	.-22     	; 0x174e <__divsf3_pse+0x10>
    1764:	33 d0       	rcall	.+102    	; 0x17cc <__divsf3_pse+0x8e>
    1766:	0e 2e       	mov	r0, r30
    1768:	3a f0       	brmi	.+14     	; 0x1778 <__divsf3_pse+0x3a>
    176a:	e0 e8       	ldi	r30, 0x80	; 128
    176c:	30 d0       	rcall	.+96     	; 0x17ce <__divsf3_pse+0x90>
    176e:	91 50       	subi	r25, 0x01	; 1
    1770:	50 40       	sbci	r21, 0x00	; 0
    1772:	e6 95       	lsr	r30
    1774:	00 1c       	adc	r0, r0
    1776:	ca f7       	brpl	.-14     	; 0x176a <__divsf3_pse+0x2c>
    1778:	29 d0       	rcall	.+82     	; 0x17cc <__divsf3_pse+0x8e>
    177a:	fe 2f       	mov	r31, r30
    177c:	27 d0       	rcall	.+78     	; 0x17cc <__divsf3_pse+0x8e>
    177e:	66 0f       	add	r22, r22
    1780:	77 1f       	adc	r23, r23
    1782:	88 1f       	adc	r24, r24
    1784:	bb 1f       	adc	r27, r27
    1786:	26 17       	cp	r18, r22
    1788:	37 07       	cpc	r19, r23
    178a:	48 07       	cpc	r20, r24
    178c:	ab 07       	cpc	r26, r27
    178e:	b0 e8       	ldi	r27, 0x80	; 128
    1790:	09 f0       	breq	.+2      	; 0x1794 <__divsf3_pse+0x56>
    1792:	bb 0b       	sbc	r27, r27
    1794:	80 2d       	mov	r24, r0
    1796:	bf 01       	movw	r22, r30
    1798:	ff 27       	eor	r31, r31
    179a:	93 58       	subi	r25, 0x83	; 131
    179c:	5f 4f       	sbci	r21, 0xFF	; 255
    179e:	2a f0       	brmi	.+10     	; 0x17aa <__divsf3_pse+0x6c>
    17a0:	9e 3f       	cpi	r25, 0xFE	; 254
    17a2:	51 05       	cpc	r21, r1
    17a4:	68 f0       	brcs	.+26     	; 0x17c0 <__divsf3_pse+0x82>
    17a6:	b6 c0       	rjmp	.+364    	; 0x1914 <__fp_inf>
    17a8:	00 c1       	rjmp	.+512    	; 0x19aa <__fp_szero>
    17aa:	5f 3f       	cpi	r21, 0xFF	; 255
    17ac:	ec f3       	brlt	.-6      	; 0x17a8 <__divsf3_pse+0x6a>
    17ae:	98 3e       	cpi	r25, 0xE8	; 232
    17b0:	dc f3       	brlt	.-10     	; 0x17a8 <__divsf3_pse+0x6a>
    17b2:	86 95       	lsr	r24
    17b4:	77 95       	ror	r23
    17b6:	67 95       	ror	r22
    17b8:	b7 95       	ror	r27
    17ba:	f7 95       	ror	r31
    17bc:	9f 5f       	subi	r25, 0xFF	; 255
    17be:	c9 f7       	brne	.-14     	; 0x17b2 <__divsf3_pse+0x74>
    17c0:	88 0f       	add	r24, r24
    17c2:	91 1d       	adc	r25, r1
    17c4:	96 95       	lsr	r25
    17c6:	87 95       	ror	r24
    17c8:	97 f9       	bld	r25, 7
    17ca:	08 95       	ret
    17cc:	e1 e0       	ldi	r30, 0x01	; 1
    17ce:	66 0f       	add	r22, r22
    17d0:	77 1f       	adc	r23, r23
    17d2:	88 1f       	adc	r24, r24
    17d4:	bb 1f       	adc	r27, r27
    17d6:	62 17       	cp	r22, r18
    17d8:	73 07       	cpc	r23, r19
    17da:	84 07       	cpc	r24, r20
    17dc:	ba 07       	cpc	r27, r26
    17de:	20 f0       	brcs	.+8      	; 0x17e8 <__divsf3_pse+0xaa>
    17e0:	62 1b       	sub	r22, r18
    17e2:	73 0b       	sbc	r23, r19
    17e4:	84 0b       	sbc	r24, r20
    17e6:	ba 0b       	sbc	r27, r26
    17e8:	ee 1f       	adc	r30, r30
    17ea:	88 f7       	brcc	.-30     	; 0x17ce <__divsf3_pse+0x90>
    17ec:	e0 95       	com	r30
    17ee:	08 95       	ret

000017f0 <__fixsfsi>:
    17f0:	04 d0       	rcall	.+8      	; 0x17fa <__fixunssfsi>
    17f2:	68 94       	set
    17f4:	b1 11       	cpse	r27, r1
    17f6:	d9 c0       	rjmp	.+434    	; 0x19aa <__fp_szero>
    17f8:	08 95       	ret

000017fa <__fixunssfsi>:
    17fa:	bc d0       	rcall	.+376    	; 0x1974 <__fp_splitA>
    17fc:	88 f0       	brcs	.+34     	; 0x1820 <__fixunssfsi+0x26>
    17fe:	9f 57       	subi	r25, 0x7F	; 127
    1800:	90 f0       	brcs	.+36     	; 0x1826 <__fixunssfsi+0x2c>
    1802:	b9 2f       	mov	r27, r25
    1804:	99 27       	eor	r25, r25
    1806:	b7 51       	subi	r27, 0x17	; 23
    1808:	a0 f0       	brcs	.+40     	; 0x1832 <__fixunssfsi+0x38>
    180a:	d1 f0       	breq	.+52     	; 0x1840 <__fixunssfsi+0x46>
    180c:	66 0f       	add	r22, r22
    180e:	77 1f       	adc	r23, r23
    1810:	88 1f       	adc	r24, r24
    1812:	99 1f       	adc	r25, r25
    1814:	1a f0       	brmi	.+6      	; 0x181c <__fixunssfsi+0x22>
    1816:	ba 95       	dec	r27
    1818:	c9 f7       	brne	.-14     	; 0x180c <__fixunssfsi+0x12>
    181a:	12 c0       	rjmp	.+36     	; 0x1840 <__fixunssfsi+0x46>
    181c:	b1 30       	cpi	r27, 0x01	; 1
    181e:	81 f0       	breq	.+32     	; 0x1840 <__fixunssfsi+0x46>
    1820:	c3 d0       	rcall	.+390    	; 0x19a8 <__fp_zero>
    1822:	b1 e0       	ldi	r27, 0x01	; 1
    1824:	08 95       	ret
    1826:	c0 c0       	rjmp	.+384    	; 0x19a8 <__fp_zero>
    1828:	67 2f       	mov	r22, r23
    182a:	78 2f       	mov	r23, r24
    182c:	88 27       	eor	r24, r24
    182e:	b8 5f       	subi	r27, 0xF8	; 248
    1830:	39 f0       	breq	.+14     	; 0x1840 <__fixunssfsi+0x46>
    1832:	b9 3f       	cpi	r27, 0xF9	; 249
    1834:	cc f3       	brlt	.-14     	; 0x1828 <__fixunssfsi+0x2e>
    1836:	86 95       	lsr	r24
    1838:	77 95       	ror	r23
    183a:	67 95       	ror	r22
    183c:	b3 95       	inc	r27
    183e:	d9 f7       	brne	.-10     	; 0x1836 <__fixunssfsi+0x3c>
    1840:	3e f4       	brtc	.+14     	; 0x1850 <__fixunssfsi+0x56>
    1842:	90 95       	com	r25
    1844:	80 95       	com	r24
    1846:	70 95       	com	r23
    1848:	61 95       	neg	r22
    184a:	7f 4f       	sbci	r23, 0xFF	; 255
    184c:	8f 4f       	sbci	r24, 0xFF	; 255
    184e:	9f 4f       	sbci	r25, 0xFF	; 255
    1850:	08 95       	ret

00001852 <__floatunsisf>:
    1852:	e8 94       	clt
    1854:	09 c0       	rjmp	.+18     	; 0x1868 <__floatsisf+0x12>

00001856 <__floatsisf>:
    1856:	97 fb       	bst	r25, 7
    1858:	3e f4       	brtc	.+14     	; 0x1868 <__floatsisf+0x12>
    185a:	90 95       	com	r25
    185c:	80 95       	com	r24
    185e:	70 95       	com	r23
    1860:	61 95       	neg	r22
    1862:	7f 4f       	sbci	r23, 0xFF	; 255
    1864:	8f 4f       	sbci	r24, 0xFF	; 255
    1866:	9f 4f       	sbci	r25, 0xFF	; 255
    1868:	99 23       	and	r25, r25
    186a:	a9 f0       	breq	.+42     	; 0x1896 <__floatsisf+0x40>
    186c:	f9 2f       	mov	r31, r25
    186e:	96 e9       	ldi	r25, 0x96	; 150
    1870:	bb 27       	eor	r27, r27
    1872:	93 95       	inc	r25
    1874:	f6 95       	lsr	r31
    1876:	87 95       	ror	r24
    1878:	77 95       	ror	r23
    187a:	67 95       	ror	r22
    187c:	b7 95       	ror	r27
    187e:	f1 11       	cpse	r31, r1
    1880:	f8 cf       	rjmp	.-16     	; 0x1872 <__floatsisf+0x1c>
    1882:	fa f4       	brpl	.+62     	; 0x18c2 <__floatsisf+0x6c>
    1884:	bb 0f       	add	r27, r27
    1886:	11 f4       	brne	.+4      	; 0x188c <__floatsisf+0x36>
    1888:	60 ff       	sbrs	r22, 0
    188a:	1b c0       	rjmp	.+54     	; 0x18c2 <__floatsisf+0x6c>
    188c:	6f 5f       	subi	r22, 0xFF	; 255
    188e:	7f 4f       	sbci	r23, 0xFF	; 255
    1890:	8f 4f       	sbci	r24, 0xFF	; 255
    1892:	9f 4f       	sbci	r25, 0xFF	; 255
    1894:	16 c0       	rjmp	.+44     	; 0x18c2 <__floatsisf+0x6c>
    1896:	88 23       	and	r24, r24
    1898:	11 f0       	breq	.+4      	; 0x189e <__floatsisf+0x48>
    189a:	96 e9       	ldi	r25, 0x96	; 150
    189c:	11 c0       	rjmp	.+34     	; 0x18c0 <__floatsisf+0x6a>
    189e:	77 23       	and	r23, r23
    18a0:	21 f0       	breq	.+8      	; 0x18aa <__floatsisf+0x54>
    18a2:	9e e8       	ldi	r25, 0x8E	; 142
    18a4:	87 2f       	mov	r24, r23
    18a6:	76 2f       	mov	r23, r22
    18a8:	05 c0       	rjmp	.+10     	; 0x18b4 <__floatsisf+0x5e>
    18aa:	66 23       	and	r22, r22
    18ac:	71 f0       	breq	.+28     	; 0x18ca <__floatsisf+0x74>
    18ae:	96 e8       	ldi	r25, 0x86	; 134
    18b0:	86 2f       	mov	r24, r22
    18b2:	70 e0       	ldi	r23, 0x00	; 0
    18b4:	60 e0       	ldi	r22, 0x00	; 0
    18b6:	2a f0       	brmi	.+10     	; 0x18c2 <__floatsisf+0x6c>
    18b8:	9a 95       	dec	r25
    18ba:	66 0f       	add	r22, r22
    18bc:	77 1f       	adc	r23, r23
    18be:	88 1f       	adc	r24, r24
    18c0:	da f7       	brpl	.-10     	; 0x18b8 <__floatsisf+0x62>
    18c2:	88 0f       	add	r24, r24
    18c4:	96 95       	lsr	r25
    18c6:	87 95       	ror	r24
    18c8:	97 f9       	bld	r25, 7
    18ca:	08 95       	ret

000018cc <__fp_cmp>:
    18cc:	99 0f       	add	r25, r25
    18ce:	00 08       	sbc	r0, r0
    18d0:	55 0f       	add	r21, r21
    18d2:	aa 0b       	sbc	r26, r26
    18d4:	e0 e8       	ldi	r30, 0x80	; 128
    18d6:	fe ef       	ldi	r31, 0xFE	; 254
    18d8:	16 16       	cp	r1, r22
    18da:	17 06       	cpc	r1, r23
    18dc:	e8 07       	cpc	r30, r24
    18de:	f9 07       	cpc	r31, r25
    18e0:	c0 f0       	brcs	.+48     	; 0x1912 <__fp_cmp+0x46>
    18e2:	12 16       	cp	r1, r18
    18e4:	13 06       	cpc	r1, r19
    18e6:	e4 07       	cpc	r30, r20
    18e8:	f5 07       	cpc	r31, r21
    18ea:	98 f0       	brcs	.+38     	; 0x1912 <__fp_cmp+0x46>
    18ec:	62 1b       	sub	r22, r18
    18ee:	73 0b       	sbc	r23, r19
    18f0:	84 0b       	sbc	r24, r20
    18f2:	95 0b       	sbc	r25, r21
    18f4:	39 f4       	brne	.+14     	; 0x1904 <__fp_cmp+0x38>
    18f6:	0a 26       	eor	r0, r26
    18f8:	61 f0       	breq	.+24     	; 0x1912 <__fp_cmp+0x46>
    18fa:	23 2b       	or	r18, r19
    18fc:	24 2b       	or	r18, r20
    18fe:	25 2b       	or	r18, r21
    1900:	21 f4       	brne	.+8      	; 0x190a <__fp_cmp+0x3e>
    1902:	08 95       	ret
    1904:	0a 26       	eor	r0, r26
    1906:	09 f4       	brne	.+2      	; 0x190a <__fp_cmp+0x3e>
    1908:	a1 40       	sbci	r26, 0x01	; 1
    190a:	a6 95       	lsr	r26
    190c:	8f ef       	ldi	r24, 0xFF	; 255
    190e:	81 1d       	adc	r24, r1
    1910:	81 1d       	adc	r24, r1
    1912:	08 95       	ret

00001914 <__fp_inf>:
    1914:	97 f9       	bld	r25, 7
    1916:	9f 67       	ori	r25, 0x7F	; 127
    1918:	80 e8       	ldi	r24, 0x80	; 128
    191a:	70 e0       	ldi	r23, 0x00	; 0
    191c:	60 e0       	ldi	r22, 0x00	; 0
    191e:	08 95       	ret

00001920 <__fp_nan>:
    1920:	9f ef       	ldi	r25, 0xFF	; 255
    1922:	80 ec       	ldi	r24, 0xC0	; 192
    1924:	08 95       	ret

00001926 <__fp_pscA>:
    1926:	00 24       	eor	r0, r0
    1928:	0a 94       	dec	r0
    192a:	16 16       	cp	r1, r22
    192c:	17 06       	cpc	r1, r23
    192e:	18 06       	cpc	r1, r24
    1930:	09 06       	cpc	r0, r25
    1932:	08 95       	ret

00001934 <__fp_pscB>:
    1934:	00 24       	eor	r0, r0
    1936:	0a 94       	dec	r0
    1938:	12 16       	cp	r1, r18
    193a:	13 06       	cpc	r1, r19
    193c:	14 06       	cpc	r1, r20
    193e:	05 06       	cpc	r0, r21
    1940:	08 95       	ret

00001942 <__fp_round>:
    1942:	09 2e       	mov	r0, r25
    1944:	03 94       	inc	r0
    1946:	00 0c       	add	r0, r0
    1948:	11 f4       	brne	.+4      	; 0x194e <__fp_round+0xc>
    194a:	88 23       	and	r24, r24
    194c:	52 f0       	brmi	.+20     	; 0x1962 <__fp_round+0x20>
    194e:	bb 0f       	add	r27, r27
    1950:	40 f4       	brcc	.+16     	; 0x1962 <__fp_round+0x20>
    1952:	bf 2b       	or	r27, r31
    1954:	11 f4       	brne	.+4      	; 0x195a <__fp_round+0x18>
    1956:	60 ff       	sbrs	r22, 0
    1958:	04 c0       	rjmp	.+8      	; 0x1962 <__fp_round+0x20>
    195a:	6f 5f       	subi	r22, 0xFF	; 255
    195c:	7f 4f       	sbci	r23, 0xFF	; 255
    195e:	8f 4f       	sbci	r24, 0xFF	; 255
    1960:	9f 4f       	sbci	r25, 0xFF	; 255
    1962:	08 95       	ret

00001964 <__fp_split3>:
    1964:	57 fd       	sbrc	r21, 7
    1966:	90 58       	subi	r25, 0x80	; 128
    1968:	44 0f       	add	r20, r20
    196a:	55 1f       	adc	r21, r21
    196c:	59 f0       	breq	.+22     	; 0x1984 <__fp_splitA+0x10>
    196e:	5f 3f       	cpi	r21, 0xFF	; 255
    1970:	71 f0       	breq	.+28     	; 0x198e <__fp_splitA+0x1a>
    1972:	47 95       	ror	r20

00001974 <__fp_splitA>:
    1974:	88 0f       	add	r24, r24
    1976:	97 fb       	bst	r25, 7
    1978:	99 1f       	adc	r25, r25
    197a:	61 f0       	breq	.+24     	; 0x1994 <__fp_splitA+0x20>
    197c:	9f 3f       	cpi	r25, 0xFF	; 255
    197e:	79 f0       	breq	.+30     	; 0x199e <__fp_splitA+0x2a>
    1980:	87 95       	ror	r24
    1982:	08 95       	ret
    1984:	12 16       	cp	r1, r18
    1986:	13 06       	cpc	r1, r19
    1988:	14 06       	cpc	r1, r20
    198a:	55 1f       	adc	r21, r21
    198c:	f2 cf       	rjmp	.-28     	; 0x1972 <__fp_split3+0xe>
    198e:	46 95       	lsr	r20
    1990:	f1 df       	rcall	.-30     	; 0x1974 <__fp_splitA>
    1992:	08 c0       	rjmp	.+16     	; 0x19a4 <__fp_splitA+0x30>
    1994:	16 16       	cp	r1, r22
    1996:	17 06       	cpc	r1, r23
    1998:	18 06       	cpc	r1, r24
    199a:	99 1f       	adc	r25, r25
    199c:	f1 cf       	rjmp	.-30     	; 0x1980 <__fp_splitA+0xc>
    199e:	86 95       	lsr	r24
    19a0:	71 05       	cpc	r23, r1
    19a2:	61 05       	cpc	r22, r1
    19a4:	08 94       	sec
    19a6:	08 95       	ret

000019a8 <__fp_zero>:
    19a8:	e8 94       	clt

000019aa <__fp_szero>:
    19aa:	bb 27       	eor	r27, r27
    19ac:	66 27       	eor	r22, r22
    19ae:	77 27       	eor	r23, r23
    19b0:	cb 01       	movw	r24, r22
    19b2:	97 f9       	bld	r25, 7
    19b4:	08 95       	ret

000019b6 <__mulsf3>:
    19b6:	0b d0       	rcall	.+22     	; 0x19ce <__mulsf3x>
    19b8:	c4 cf       	rjmp	.-120    	; 0x1942 <__fp_round>
    19ba:	b5 df       	rcall	.-150    	; 0x1926 <__fp_pscA>
    19bc:	28 f0       	brcs	.+10     	; 0x19c8 <__mulsf3+0x12>
    19be:	ba df       	rcall	.-140    	; 0x1934 <__fp_pscB>
    19c0:	18 f0       	brcs	.+6      	; 0x19c8 <__mulsf3+0x12>
    19c2:	95 23       	and	r25, r21
    19c4:	09 f0       	breq	.+2      	; 0x19c8 <__mulsf3+0x12>
    19c6:	a6 cf       	rjmp	.-180    	; 0x1914 <__fp_inf>
    19c8:	ab cf       	rjmp	.-170    	; 0x1920 <__fp_nan>
    19ca:	11 24       	eor	r1, r1
    19cc:	ee cf       	rjmp	.-36     	; 0x19aa <__fp_szero>

000019ce <__mulsf3x>:
    19ce:	ca df       	rcall	.-108    	; 0x1964 <__fp_split3>
    19d0:	a0 f3       	brcs	.-24     	; 0x19ba <__mulsf3+0x4>

000019d2 <__mulsf3_pse>:
    19d2:	95 9f       	mul	r25, r21
    19d4:	d1 f3       	breq	.-12     	; 0x19ca <__mulsf3+0x14>
    19d6:	95 0f       	add	r25, r21
    19d8:	50 e0       	ldi	r21, 0x00	; 0
    19da:	55 1f       	adc	r21, r21
    19dc:	62 9f       	mul	r22, r18
    19de:	f0 01       	movw	r30, r0
    19e0:	72 9f       	mul	r23, r18
    19e2:	bb 27       	eor	r27, r27
    19e4:	f0 0d       	add	r31, r0
    19e6:	b1 1d       	adc	r27, r1
    19e8:	63 9f       	mul	r22, r19
    19ea:	aa 27       	eor	r26, r26
    19ec:	f0 0d       	add	r31, r0
    19ee:	b1 1d       	adc	r27, r1
    19f0:	aa 1f       	adc	r26, r26
    19f2:	64 9f       	mul	r22, r20
    19f4:	66 27       	eor	r22, r22
    19f6:	b0 0d       	add	r27, r0
    19f8:	a1 1d       	adc	r26, r1
    19fa:	66 1f       	adc	r22, r22
    19fc:	82 9f       	mul	r24, r18
    19fe:	22 27       	eor	r18, r18
    1a00:	b0 0d       	add	r27, r0
    1a02:	a1 1d       	adc	r26, r1
    1a04:	62 1f       	adc	r22, r18
    1a06:	73 9f       	mul	r23, r19
    1a08:	b0 0d       	add	r27, r0
    1a0a:	a1 1d       	adc	r26, r1
    1a0c:	62 1f       	adc	r22, r18
    1a0e:	83 9f       	mul	r24, r19
    1a10:	a0 0d       	add	r26, r0
    1a12:	61 1d       	adc	r22, r1
    1a14:	22 1f       	adc	r18, r18
    1a16:	74 9f       	mul	r23, r20
    1a18:	33 27       	eor	r19, r19
    1a1a:	a0 0d       	add	r26, r0
    1a1c:	61 1d       	adc	r22, r1
    1a1e:	23 1f       	adc	r18, r19
    1a20:	84 9f       	mul	r24, r20
    1a22:	60 0d       	add	r22, r0
    1a24:	21 1d       	adc	r18, r1
    1a26:	82 2f       	mov	r24, r18
    1a28:	76 2f       	mov	r23, r22
    1a2a:	6a 2f       	mov	r22, r26
    1a2c:	11 24       	eor	r1, r1
    1a2e:	9f 57       	subi	r25, 0x7F	; 127
    1a30:	50 40       	sbci	r21, 0x00	; 0
    1a32:	8a f0       	brmi	.+34     	; 0x1a56 <__mulsf3_pse+0x84>
    1a34:	e1 f0       	breq	.+56     	; 0x1a6e <__mulsf3_pse+0x9c>
    1a36:	88 23       	and	r24, r24
    1a38:	4a f0       	brmi	.+18     	; 0x1a4c <__mulsf3_pse+0x7a>
    1a3a:	ee 0f       	add	r30, r30
    1a3c:	ff 1f       	adc	r31, r31
    1a3e:	bb 1f       	adc	r27, r27
    1a40:	66 1f       	adc	r22, r22
    1a42:	77 1f       	adc	r23, r23
    1a44:	88 1f       	adc	r24, r24
    1a46:	91 50       	subi	r25, 0x01	; 1
    1a48:	50 40       	sbci	r21, 0x00	; 0
    1a4a:	a9 f7       	brne	.-22     	; 0x1a36 <__mulsf3_pse+0x64>
    1a4c:	9e 3f       	cpi	r25, 0xFE	; 254
    1a4e:	51 05       	cpc	r21, r1
    1a50:	70 f0       	brcs	.+28     	; 0x1a6e <__mulsf3_pse+0x9c>
    1a52:	60 cf       	rjmp	.-320    	; 0x1914 <__fp_inf>
    1a54:	aa cf       	rjmp	.-172    	; 0x19aa <__fp_szero>
    1a56:	5f 3f       	cpi	r21, 0xFF	; 255
    1a58:	ec f3       	brlt	.-6      	; 0x1a54 <__mulsf3_pse+0x82>
    1a5a:	98 3e       	cpi	r25, 0xE8	; 232
    1a5c:	dc f3       	brlt	.-10     	; 0x1a54 <__mulsf3_pse+0x82>
    1a5e:	86 95       	lsr	r24
    1a60:	77 95       	ror	r23
    1a62:	67 95       	ror	r22
    1a64:	b7 95       	ror	r27
    1a66:	f7 95       	ror	r31
    1a68:	e7 95       	ror	r30
    1a6a:	9f 5f       	subi	r25, 0xFF	; 255
    1a6c:	c1 f7       	brne	.-16     	; 0x1a5e <__mulsf3_pse+0x8c>
    1a6e:	fe 2b       	or	r31, r30
    1a70:	88 0f       	add	r24, r24
    1a72:	91 1d       	adc	r25, r1
    1a74:	96 95       	lsr	r25
    1a76:	87 95       	ror	r24
    1a78:	97 f9       	bld	r25, 7
    1a7a:	08 95       	ret

00001a7c <__divmodhi4>:
    1a7c:	97 fb       	bst	r25, 7
    1a7e:	07 2e       	mov	r0, r23
    1a80:	16 f4       	brtc	.+4      	; 0x1a86 <__divmodhi4+0xa>
    1a82:	00 94       	com	r0
    1a84:	06 d0       	rcall	.+12     	; 0x1a92 <__divmodhi4_neg1>
    1a86:	77 fd       	sbrc	r23, 7
    1a88:	08 d0       	rcall	.+16     	; 0x1a9a <__divmodhi4_neg2>
    1a8a:	0b d0       	rcall	.+22     	; 0x1aa2 <__udivmodhi4>
    1a8c:	07 fc       	sbrc	r0, 7
    1a8e:	05 d0       	rcall	.+10     	; 0x1a9a <__divmodhi4_neg2>
    1a90:	3e f4       	brtc	.+14     	; 0x1aa0 <__divmodhi4_exit>

00001a92 <__divmodhi4_neg1>:
    1a92:	90 95       	com	r25
    1a94:	81 95       	neg	r24
    1a96:	9f 4f       	sbci	r25, 0xFF	; 255
    1a98:	08 95       	ret

00001a9a <__divmodhi4_neg2>:
    1a9a:	70 95       	com	r23
    1a9c:	61 95       	neg	r22
    1a9e:	7f 4f       	sbci	r23, 0xFF	; 255

00001aa0 <__divmodhi4_exit>:
    1aa0:	08 95       	ret

00001aa2 <__udivmodhi4>:
    1aa2:	aa 1b       	sub	r26, r26
    1aa4:	bb 1b       	sub	r27, r27
    1aa6:	51 e1       	ldi	r21, 0x11	; 17
    1aa8:	07 c0       	rjmp	.+14     	; 0x1ab8 <__udivmodhi4_ep>

00001aaa <__udivmodhi4_loop>:
    1aaa:	aa 1f       	adc	r26, r26
    1aac:	bb 1f       	adc	r27, r27
    1aae:	a6 17       	cp	r26, r22
    1ab0:	b7 07       	cpc	r27, r23
    1ab2:	10 f0       	brcs	.+4      	; 0x1ab8 <__udivmodhi4_ep>
    1ab4:	a6 1b       	sub	r26, r22
    1ab6:	b7 0b       	sbc	r27, r23

00001ab8 <__udivmodhi4_ep>:
    1ab8:	88 1f       	adc	r24, r24
    1aba:	99 1f       	adc	r25, r25
    1abc:	5a 95       	dec	r21
    1abe:	a9 f7       	brne	.-22     	; 0x1aaa <__udivmodhi4_loop>
    1ac0:	80 95       	com	r24
    1ac2:	90 95       	com	r25
    1ac4:	bc 01       	movw	r22, r24
    1ac6:	cd 01       	movw	r24, r26
    1ac8:	08 95       	ret

00001aca <__tablejump2__>:
    1aca:	ee 0f       	add	r30, r30
    1acc:	ff 1f       	adc	r31, r31
    1ace:	88 1f       	adc	r24, r24
    1ad0:	8b bf       	out	0x3b, r24	; 59
    1ad2:	07 90       	elpm	r0, Z+
    1ad4:	f6 91       	elpm	r31, Z
    1ad6:	e0 2d       	mov	r30, r0
    1ad8:	19 94       	eijmp

00001ada <_exit>:
    1ada:	f8 94       	cli

00001adc <__stop_program>:
    1adc:	ff cf       	rjmp	.-2      	; 0x1adc <__stop_program>
